
build/RTOSDemo.elf:     file format elf64-littleriscv


Disassembly of section .init:

0000000080000000 <_start>:
    80000000:	00028197          	auipc	gp,0x28
    80000004:	58818193          	addi	gp,gp,1416 # 80028588 <__global_pointer$>
    80000008:	f1402573          	csrr	a0,mhartid
    8000000c:	4581                	li	a1,0
    8000000e:	0142d117          	auipc	sp,0x142d
    80000012:	87210113          	addi	sp,sp,-1934 # 8142c880 <_stack_top>
    80000016:	a031                	j	80000022 <load_data_sec>

0000000080000018 <_stack_multicore>:
    80000018:	00150113          	addi	sp,a0,1
    8000001c:	0146                	slli	sp,sp,0x11
    8000001e:	04b51363          	bne	a0,a1,80000064 <slave_thread>

0000000080000022 <load_data_sec>:
    80000022:	00027517          	auipc	a0,0x27
    80000026:	c0e50513          	addi	a0,a0,-1010 # 80026c30 <_data>
    8000002a:	00027597          	auipc	a1,0x27
    8000002e:	c0658593          	addi	a1,a1,-1018 # 80026c30 <_data>
    80000032:	9a818613          	addi	a2,gp,-1624 # 80027f30 <uxSchedulerSuspended>
    80000036:	00c5fa63          	bgeu	a1,a2,8000004a <load_data_sec+0x28>
    8000003a:	00052283          	lw	t0,0(a0)
    8000003e:	0055a023          	sw	t0,0(a1)
    80000042:	0511                	addi	a0,a0,4
    80000044:	0591                	addi	a1,a1,4
    80000046:	fec5eae3          	bltu	a1,a2,8000003a <load_data_sec+0x18>
    8000004a:	9a818513          	addi	a0,gp,-1624 # 80027f30 <uxSchedulerSuspended>
    8000004e:	0082d597          	auipc	a1,0x82d
    80000052:	82a58593          	addi	a1,a1,-2006 # 8082c878 <_ebss>
    80000056:	00b57763          	bgeu	a0,a1,80000064 <slave_thread>
    8000005a:	00052023          	sw	zero,0(a0)
    8000005e:	0511                	addi	a0,a0,4
    80000060:	feb56de3          	bltu	a0,a1,8000005a <load_data_sec+0x38>

0000000080000064 <slave_thread>:
    80000064:	4501                	li	a0,0
    80000066:	4581                	li	a1,0
    80000068:	4601                	li	a2,0
    8000006a:	6fa1                	lui	t6,0x8
    8000006c:	888f8f9b          	addiw	t6,t6,-1912
    80000070:	300f9073          	csrw	mstatus,t6
    80000074:	08c000ef          	jal	ra,80000100 <main>
    80000078:	10500073          	wfi
    8000007c:	bff5                	j	80000078 <slave_thread+0x14>

000000008000007e <secondary>:
    8000007e:	10500073          	wfi
    80000082:	bff5                	j	8000007e <secondary>

Disassembly of section .text:

0000000080000100 <main>:
    80000100:	f14027f3          	csrr	a5,mhartid
    80000104:	00016697          	auipc	a3,0x16
    80000108:	1fc68693          	addi	a3,a3,508 # 80016300 <freertos_risc_v_trap_handler>
    8000010c:	0007871b          	sext.w	a4,a5
    80000110:	30569073          	csrw	mtvec,a3
    80000114:	c30d                	beqz	a4,80000136 <interfering_cores+0xe>
    80000116:	0847861b          	addiw	a2,a5,132
    8000011a:	0186161b          	slliw	a2,a2,0x18
    8000011e:	1602                	slli	a2,a2,0x20
    80000120:	9201                	srli	a2,a2,0x20
    80000122:	fffc0737          	lui	a4,0xfffc0
    80000126:	9732                	add	a4,a4,a2

0000000080000128 <interfering_cores>:
    80000128:	87b2                	mv	a5,a2
    8000012a:	6394                	ld	a3,0(a5)
    8000012c:	fc078793          	addi	a5,a5,-64
    80000130:	fef71de3          	bne	a4,a5,8000012a <interfering_cores+0x2>
    80000134:	bfd5                	j	80000128 <interfering_cores>
    80000136:	65f1                	lui	a1,0x1c
    80000138:	7159                	addi	sp,sp,-112
    8000013a:	460d                	li	a2,3
    8000013c:	20058593          	addi	a1,a1,512 # 1c200 <__stack_size+0x1c0d4>
    80000140:	00027517          	auipc	a0,0x27
    80000144:	b0850513          	addi	a0,a0,-1272 # 80026c48 <g_uart_0>
    80000148:	f486                	sd	ra,104(sp)
    8000014a:	f0a2                	sd	s0,96(sp)
    8000014c:	eca6                	sd	s1,88(sp)
    8000014e:	6ca160ef          	jal	ra,80016818 <UART_init>
    80000152:	00027597          	auipc	a1,0x27
    80000156:	ae658593          	addi	a1,a1,-1306 # 80026c38 <s_uart>
    8000015a:	00027517          	auipc	a0,0x27
    8000015e:	aee50513          	addi	a0,a0,-1298 # 80026c48 <g_uart_0>
    80000162:	798160ef          	jal	ra,800168fa <UART_polled_tx_string>
    80000166:	6689                	lui	a3,0x2
    80000168:	e0068693          	addi	a3,a3,-512 # 1e00 <__stack_size+0x1cd4>
    8000016c:	6665                	lui	a2,0x19
    8000016e:	02000597          	auipc	a1,0x2000
    80000172:	e9258593          	addi	a1,a1,-366 # 82000000 <my_fat_image_start>
    80000176:	00025517          	auipc	a0,0x25
    8000017a:	0b250513          	addi	a0,a0,178 # 80025228 <CSWTCH.15+0x718>
    8000017e:	2850b0ef          	jal	ra,8000bc02 <FF_RAMDiskInit2>
    80000182:	5b90b0ef          	jal	ra,8000bf3a <FF_RAMDiskShowPartition>
    80000186:	00025517          	auipc	a0,0x25
    8000018a:	0aa50513          	addi	a0,a0,170 # 80025230 <CSWTCH.15+0x720>
    8000018e:	340160ef          	jal	ra,800164ce <DIRCommand>
    80000192:	00025517          	auipc	a0,0x25
    80000196:	0a650513          	addi	a0,a0,166 # 80025238 <CSWTCH.15+0x728>
    8000019a:	334160ef          	jal	ra,800164ce <DIRCommand>
    8000019e:	00025517          	auipc	a0,0x25
    800001a2:	0aa50513          	addi	a0,a0,170 # 80025248 <CSWTCH.15+0x738>
    800001a6:	328160ef          	jal	ra,800164ce <DIRCommand>
    800001aa:	00025517          	auipc	a0,0x25
    800001ae:	0ae50513          	addi	a0,a0,174 # 80025258 <CSWTCH.15+0x748>
    800001b2:	31c160ef          	jal	ra,800164ce <DIRCommand>
    800001b6:	00025517          	auipc	a0,0x25
    800001ba:	0b250513          	addi	a0,a0,178 # 80025268 <CSWTCH.15+0x758>
    800001be:	310160ef          	jal	ra,800164ce <DIRCommand>
    800001c2:	00025517          	auipc	a0,0x25
    800001c6:	0b650513          	addi	a0,a0,182 # 80025278 <CSWTCH.15+0x768>
    800001ca:	304160ef          	jal	ra,800164ce <DIRCommand>
    800001ce:	00025517          	auipc	a0,0x25
    800001d2:	0ba50513          	addi	a0,a0,186 # 80025288 <CSWTCH.15+0x778>
    800001d6:	2f8160ef          	jal	ra,800164ce <DIRCommand>
    800001da:	00025517          	auipc	a0,0x25
    800001de:	0be50513          	addi	a0,a0,190 # 80025298 <CSWTCH.15+0x788>
    800001e2:	2ec160ef          	jal	ra,800164ce <DIRCommand>
    800001e6:	00025517          	auipc	a0,0x25
    800001ea:	0c250513          	addi	a0,a0,194 # 800252a8 <CSWTCH.15+0x798>
    800001ee:	2e0160ef          	jal	ra,800164ce <DIRCommand>
    800001f2:	00025517          	auipc	a0,0x25
    800001f6:	0c650513          	addi	a0,a0,198 # 800252b8 <CSWTCH.15+0x7a8>
    800001fa:	2d4160ef          	jal	ra,800164ce <DIRCommand>
    800001fe:	00025797          	auipc	a5,0x25
    80000202:	0ca78793          	addi	a5,a5,202 # 800252c8 <CSWTCH.15+0x7b8>
    80000206:	002c                	addi	a1,sp,8
    80000208:	e43e                	sd	a5,8(sp)
    8000020a:	4509                	li	a0,2
    8000020c:	00025797          	auipc	a5,0x25
    80000210:	0ac78793          	addi	a5,a5,172 # 800252b8 <CSWTCH.15+0x7a8>
    80000214:	e83e                	sd	a5,16(sp)
    80000216:	7570b0ef          	jal	ra,8000c16c <sdvb_multi_ncut>
    8000021a:	00025517          	auipc	a0,0x25
    8000021e:	0c650513          	addi	a0,a0,198 # 800252e0 <CSWTCH.15+0x7d0>
    80000222:	2ac160ef          	jal	ra,800164ce <DIRCommand>
    80000226:	00025597          	auipc	a1,0x25
    8000022a:	14a58593          	addi	a1,a1,330 # 80025370 <CSWTCH.15+0x860>
    8000022e:	00025517          	auipc	a0,0x25
    80000232:	0c250513          	addi	a0,a0,194 # 800252f0 <CSWTCH.15+0x7e0>
    80000236:	1f70a0ef          	jal	ra,8000ac2c <ff_fopen>
    8000023a:	86aa                	mv	a3,a0
    8000023c:	4629                	li	a2,10
    8000023e:	842a                	mv	s0,a0
    80000240:	4585                	li	a1,1
    80000242:	0828                	addi	a0,sp,24
    80000244:	2ef0a0ef          	jal	ra,8000ad32 <ff_fread>
    80000248:	8522                	mv	a0,s0
    8000024a:	2170a0ef          	jal	ra,8000ac60 <ff_fclose>
    8000024e:	4429                	li	s0,10
    80000250:	082c                	addi	a1,sp,24
    80000252:	00027517          	auipc	a0,0x27
    80000256:	9f650513          	addi	a0,a0,-1546 # 80026c48 <g_uart_0>
    8000025a:	02811123          	sh	s0,34(sp)
    8000025e:	69c160ef          	jal	ra,800168fa <UART_polled_tx_string>
    80000262:	00025597          	auipc	a1,0x25
    80000266:	a1658593          	addi	a1,a1,-1514 # 80024c78 <CSWTCH.15+0x168>
    8000026a:	00025517          	auipc	a0,0x25
    8000026e:	09650513          	addi	a0,a0,150 # 80025300 <CSWTCH.15+0x7f0>
    80000272:	1bb0a0ef          	jal	ra,8000ac2c <ff_fopen>
    80000276:	86aa                	mv	a3,a0
    80000278:	4605                	li	a2,1
    8000027a:	84aa                	mv	s1,a0
    8000027c:	45d1                	li	a1,20
    8000027e:	00025517          	auipc	a0,0x25
    80000282:	09250513          	addi	a0,a0,146 # 80025310 <CSWTCH.15+0x800>
    80000286:	2f30a0ef          	jal	ra,8000ad78 <ff_fwrite>
    8000028a:	8526                	mv	a0,s1
    8000028c:	1d50a0ef          	jal	ra,8000ac60 <ff_fclose>
    80000290:	00025597          	auipc	a1,0x25
    80000294:	0e058593          	addi	a1,a1,224 # 80025370 <CSWTCH.15+0x860>
    80000298:	00025517          	auipc	a0,0x25
    8000029c:	05850513          	addi	a0,a0,88 # 800252f0 <CSWTCH.15+0x7e0>
    800002a0:	18d0a0ef          	jal	ra,8000ac2c <ff_fopen>
    800002a4:	86aa                	mv	a3,a0
    800002a6:	4629                	li	a2,10
    800002a8:	4585                	li	a1,1
    800002aa:	84aa                	mv	s1,a0
    800002ac:	0828                	addi	a0,sp,24
    800002ae:	2850a0ef          	jal	ra,8000ad32 <ff_fread>
    800002b2:	8526                	mv	a0,s1
    800002b4:	1ad0a0ef          	jal	ra,8000ac60 <ff_fclose>
    800002b8:	00027517          	auipc	a0,0x27
    800002bc:	99050513          	addi	a0,a0,-1648 # 80026c48 <g_uart_0>
    800002c0:	082c                	addi	a1,sp,24
    800002c2:	02811123          	sh	s0,34(sp)
    800002c6:	634160ef          	jal	ra,800168fa <UART_polled_tx_string>
    800002ca:	00025517          	auipc	a0,0x25
    800002ce:	f6650513          	addi	a0,a0,-154 # 80025230 <CSWTCH.15+0x720>
    800002d2:	1fc160ef          	jal	ra,800164ce <DIRCommand>
    800002d6:	a001                	j	800002d6 <interfering_cores+0x1ae>

00000000800002d8 <xEventGroupCreate>:
    800002d8:	1141                	addi	sp,sp,-16
    800002da:	03000513          	li	a0,48
    800002de:	e022                	sd	s0,0(sp)
    800002e0:	e406                	sd	ra,8(sp)
    800002e2:	6cb030ef          	jal	ra,800041ac <pvPortMalloc>
    800002e6:	842a                	mv	s0,a0
    800002e8:	c511                	beqz	a0,800002f4 <xEventGroupCreate+0x1c>
    800002ea:	00053023          	sd	zero,0(a0)
    800002ee:	0521                	addi	a0,a0,8
    800002f0:	3e6000ef          	jal	ra,800006d6 <vListInitialise>
    800002f4:	60a2                	ld	ra,8(sp)
    800002f6:	8522                	mv	a0,s0
    800002f8:	6402                	ld	s0,0(sp)
    800002fa:	0141                	addi	sp,sp,16
    800002fc:	8082                	ret

00000000800002fe <xEventGroupWaitBits>:
    800002fe:	c905                	beqz	a0,8000032e <xEventGroupWaitBits+0x30>
    80000300:	715d                	addi	sp,sp,-80
    80000302:	fc26                	sd	s1,56(sp)
    80000304:	0ff00493          	li	s1,255
    80000308:	04e2                	slli	s1,s1,0x18
    8000030a:	e0a2                	sd	s0,64(sp)
    8000030c:	e486                	sd	ra,72(sp)
    8000030e:	f84a                	sd	s2,48(sp)
    80000310:	f44e                	sd	s3,40(sp)
    80000312:	f052                	sd	s4,32(sp)
    80000314:	ec56                	sd	s5,24(sp)
    80000316:	8ced                	and	s1,s1,a1
    80000318:	842e                	mv	s0,a1
    8000031a:	e491                	bnez	s1,80000326 <xEventGroupWaitBits+0x28>
    8000031c:	ed89                	bnez	a1,80000336 <xEventGroupWaitBits+0x38>
    8000031e:	30047073          	csrci	mstatus,8
    80000322:	9002                	ebreak
    80000324:	a001                	j	80000324 <xEventGroupWaitBits+0x26>
    80000326:	30047073          	csrci	mstatus,8
    8000032a:	9002                	ebreak
    8000032c:	a001                	j	8000032c <xEventGroupWaitBits+0x2e>
    8000032e:	30047073          	csrci	mstatus,8
    80000332:	9002                	ebreak
    80000334:	a001                	j	80000334 <xEventGroupWaitBits+0x36>
    80000336:	e43a                	sd	a4,8(sp)
    80000338:	8a2a                	mv	s4,a0
    8000033a:	8932                	mv	s2,a2
    8000033c:	8ab6                	mv	s5,a3
    8000033e:	040030ef          	jal	ra,8000337e <xTaskGetSchedulerState>
    80000342:	6722                	ld	a4,8(sp)
    80000344:	e111                	bnez	a0,80000348 <xEventGroupWaitBits+0x4a>
    80000346:	eb4d                	bnez	a4,800003f8 <xEventGroupWaitBits+0xfa>
    80000348:	e43a                	sd	a4,8(sp)
    8000034a:	21f020ef          	jal	ra,80002d68 <vTaskSuspendAll>
    8000034e:	000a3983          	ld	s3,0(s4)
    80000352:	6722                	ld	a4,8(sp)
    80000354:	013477b3          	and	a5,s0,s3
    80000358:	020a9763          	bnez	s5,80000386 <xEventGroupWaitBits+0x88>
    8000035c:	c79d                	beqz	a5,8000038a <xEventGroupWaitBits+0x8c>
    8000035e:	0a090e63          	beqz	s2,8000041a <xEventGroupWaitBits+0x11c>
    80000362:	fff44793          	not	a5,s0
    80000366:	0137f7b3          	and	a5,a5,s3
    8000036a:	00fa3023          	sd	a5,0(s4)
    8000036e:	207020ef          	jal	ra,80002d74 <xTaskResumeAll>
    80000372:	60a6                	ld	ra,72(sp)
    80000374:	6406                	ld	s0,64(sp)
    80000376:	74e2                	ld	s1,56(sp)
    80000378:	7942                	ld	s2,48(sp)
    8000037a:	7a02                	ld	s4,32(sp)
    8000037c:	6ae2                	ld	s5,24(sp)
    8000037e:	854e                	mv	a0,s3
    80000380:	79a2                	ld	s3,40(sp)
    80000382:	6161                	addi	sp,sp,80
    80000384:	8082                	ret
    80000386:	fcf40ce3          	beq	s0,a5,8000035e <xEventGroupWaitBits+0x60>
    8000038a:	cb41                	beqz	a4,8000041a <xEventGroupWaitBits+0x11c>
    8000038c:	00090463          	beqz	s2,80000394 <xEventGroupWaitBits+0x96>
    80000390:	010004b7          	lui	s1,0x1000
    80000394:	000a8563          	beqz	s5,8000039e <xEventGroupWaitBits+0xa0>
    80000398:	040007b7          	lui	a5,0x4000
    8000039c:	8cdd                	or	s1,s1,a5
    8000039e:	863a                	mv	a2,a4
    800003a0:	0084e5b3          	or	a1,s1,s0
    800003a4:	008a0513          	addi	a0,s4,8
    800003a8:	485020ef          	jal	ra,8000302c <vTaskPlaceOnUnorderedEventList>
    800003ac:	1c9020ef          	jal	ra,80002d74 <xTaskResumeAll>
    800003b0:	e119                	bnez	a0,800003b6 <xEventGroupWaitBits+0xb8>
    800003b2:	00000073          	ecall
    800003b6:	20a030ef          	jal	ra,800035c0 <uxTaskResetEventItemValue>
    800003ba:	020007b7          	lui	a5,0x2000
    800003be:	8fe9                	and	a5,a5,a0
    800003c0:	89aa                	mv	s3,a0
    800003c2:	e785                	bnez	a5,800003ea <xEventGroupWaitBits+0xec>
    800003c4:	30047073          	csrci	mstatus,8
    800003c8:	81018713          	addi	a4,gp,-2032 # 80027d98 <xCriticalNesting>
    800003cc:	631c                	ld	a5,0(a4)
    800003ce:	00178613          	addi	a2,a5,1 # 2000001 <__stack_size+0x1fffed5>
    800003d2:	e310                	sd	a2,0(a4)
    800003d4:	000a3983          	ld	s3,0(s4)
    800003d8:	013476b3          	and	a3,s0,s3
    800003dc:	020a9263          	bnez	s5,80000400 <xEventGroupWaitBits+0x102>
    800003e0:	e295                	bnez	a3,80000404 <xEventGroupWaitBits+0x106>
    800003e2:	e31c                	sd	a5,0(a4)
    800003e4:	e399                	bnez	a5,800003ea <xEventGroupWaitBits+0xec>
    800003e6:	30046073          	csrsi	mstatus,8
    800003ea:	f0100793          	li	a5,-255
    800003ee:	07e2                	slli	a5,a5,0x18
    800003f0:	17fd                	addi	a5,a5,-1
    800003f2:	00f9f9b3          	and	s3,s3,a5
    800003f6:	bfb5                	j	80000372 <xEventGroupWaitBits+0x74>
    800003f8:	30047073          	csrci	mstatus,8
    800003fc:	9002                	ebreak
    800003fe:	a001                	j	800003fe <xEventGroupWaitBits+0x100>
    80000400:	fed411e3          	bne	s0,a3,800003e2 <xEventGroupWaitBits+0xe4>
    80000404:	fc090fe3          	beqz	s2,800003e2 <xEventGroupWaitBits+0xe4>
    80000408:	fff44793          	not	a5,s0
    8000040c:	0137f7b3          	and	a5,a5,s3
    80000410:	00fa3023          	sd	a5,0(s4)
    80000414:	631c                	ld	a5,0(a4)
    80000416:	17fd                	addi	a5,a5,-1
    80000418:	b7e9                	j	800003e2 <xEventGroupWaitBits+0xe4>
    8000041a:	15b020ef          	jal	ra,80002d74 <xTaskResumeAll>
    8000041e:	bf91                	j	80000372 <xEventGroupWaitBits+0x74>

0000000080000420 <xEventGroupClearBits>:
    80000420:	872a                	mv	a4,a0
    80000422:	cd15                	beqz	a0,8000045e <xEventGroupClearBits+0x3e>
    80000424:	0ff00793          	li	a5,255
    80000428:	07e2                	slli	a5,a5,0x18
    8000042a:	8fed                	and	a5,a5,a1
    8000042c:	c789                	beqz	a5,80000436 <xEventGroupClearBits+0x16>
    8000042e:	30047073          	csrci	mstatus,8
    80000432:	9002                	ebreak
    80000434:	a001                	j	80000434 <xEventGroupClearBits+0x14>
    80000436:	30047073          	csrci	mstatus,8
    8000043a:	81018693          	addi	a3,gp,-2032 # 80027d98 <xCriticalNesting>
    8000043e:	629c                	ld	a5,0(a3)
    80000440:	fff5c593          	not	a1,a1
    80000444:	0785                	addi	a5,a5,1
    80000446:	e29c                	sd	a5,0(a3)
    80000448:	6108                	ld	a0,0(a0)
    8000044a:	00a5f7b3          	and	a5,a1,a0
    8000044e:	e31c                	sd	a5,0(a4)
    80000450:	629c                	ld	a5,0(a3)
    80000452:	17fd                	addi	a5,a5,-1
    80000454:	e29c                	sd	a5,0(a3)
    80000456:	e399                	bnez	a5,8000045c <xEventGroupClearBits+0x3c>
    80000458:	30046073          	csrsi	mstatus,8
    8000045c:	8082                	ret
    8000045e:	30047073          	csrci	mstatus,8
    80000462:	9002                	ebreak
    80000464:	a001                	j	80000464 <xEventGroupClearBits+0x44>

0000000080000466 <xEventGroupGetBitsFromISR>:
    80000466:	6108                	ld	a0,0(a0)
    80000468:	8082                	ret

000000008000046a <xEventGroupSetBits>:
    8000046a:	cd4d                	beqz	a0,80000524 <xEventGroupSetBits+0xba>
    8000046c:	711d                	addi	sp,sp,-96
    8000046e:	e0ca                	sd	s2,64(sp)
    80000470:	0ff00913          	li	s2,255
    80000474:	0962                	slli	s2,s2,0x18
    80000476:	ec86                	sd	ra,88(sp)
    80000478:	e8a2                	sd	s0,80(sp)
    8000047a:	e4a6                	sd	s1,72(sp)
    8000047c:	fc4e                	sd	s3,56(sp)
    8000047e:	f852                	sd	s4,48(sp)
    80000480:	f456                	sd	s5,40(sp)
    80000482:	f05a                	sd	s6,32(sp)
    80000484:	ec5e                	sd	s7,24(sp)
    80000486:	0125f933          	and	s2,a1,s2
    8000048a:	00090663          	beqz	s2,80000496 <xEventGroupSetBits+0x2c>
    8000048e:	30047073          	csrci	mstatus,8
    80000492:	9002                	ebreak
    80000494:	a001                	j	80000494 <xEventGroupSetBits+0x2a>
    80000496:	84aa                	mv	s1,a0
    80000498:	e42e                	sd	a1,8(sp)
    8000049a:	0cf020ef          	jal	ra,80002d68 <vTaskSuspendAll>
    8000049e:	6098                	ld	a4,0(s1)
    800004a0:	65a2                	ld	a1,8(sp)
    800004a2:	7080                	ld	s0,32(s1)
    800004a4:	01848a13          	addi	s4,s1,24 # 1000018 <__stack_size+0xfffeec>
    800004a8:	8f4d                	or	a4,a4,a1
    800004aa:	e098                	sd	a4,0(s1)
    800004ac:	048a0863          	beq	s4,s0,800004fc <xEventGroupSetBits+0x92>
    800004b0:	f0100993          	li	s3,-255
    800004b4:	09e2                	slli	s3,s3,0x18
    800004b6:	19fd                	addi	s3,s3,-1
    800004b8:	04000bb7          	lui	s7,0x4000
    800004bc:	01000b37          	lui	s6,0x1000
    800004c0:	02000ab7          	lui	s5,0x2000
    800004c4:	601c                	ld	a5,0(s0)
    800004c6:	8522                	mv	a0,s0
    800004c8:	015765b3          	or	a1,a4,s5
    800004cc:	0137f6b3          	and	a3,a5,s3
    800004d0:	0177f633          	and	a2,a5,s7
    800004d4:	6400                	ld	s0,8(s0)
    800004d6:	0167f7b3          	and	a5,a5,s6
    800004da:	00d77833          	and	a6,a4,a3
    800004de:	ee15                	bnez	a2,8000051a <xEventGroupSetBits+0xb0>
    800004e0:	00080863          	beqz	a6,800004f0 <xEventGroupSetBits+0x86>
    800004e4:	c399                	beqz	a5,800004ea <xEventGroupSetBits+0x80>
    800004e6:	00d96933          	or	s2,s2,a3
    800004ea:	4e5020ef          	jal	ra,800031ce <vTaskRemoveFromUnorderedEventList>
    800004ee:	6098                	ld	a4,0(s1)
    800004f0:	fc8a1ae3          	bne	s4,s0,800004c4 <xEventGroupSetBits+0x5a>
    800004f4:	fff94913          	not	s2,s2
    800004f8:	01277733          	and	a4,a4,s2
    800004fc:	e098                	sd	a4,0(s1)
    800004fe:	077020ef          	jal	ra,80002d74 <xTaskResumeAll>
    80000502:	60e6                	ld	ra,88(sp)
    80000504:	6446                	ld	s0,80(sp)
    80000506:	6088                	ld	a0,0(s1)
    80000508:	6906                	ld	s2,64(sp)
    8000050a:	64a6                	ld	s1,72(sp)
    8000050c:	79e2                	ld	s3,56(sp)
    8000050e:	7a42                	ld	s4,48(sp)
    80000510:	7aa2                	ld	s5,40(sp)
    80000512:	7b02                	ld	s6,32(sp)
    80000514:	6be2                	ld	s7,24(sp)
    80000516:	6125                	addi	sp,sp,96
    80000518:	8082                	ret
    8000051a:	fd0685e3          	beq	a3,a6,800004e4 <xEventGroupSetBits+0x7a>
    8000051e:	fa8a13e3          	bne	s4,s0,800004c4 <xEventGroupSetBits+0x5a>
    80000522:	bfc9                	j	800004f4 <xEventGroupSetBits+0x8a>
    80000524:	30047073          	csrci	mstatus,8
    80000528:	9002                	ebreak
    8000052a:	a001                	j	8000052a <xEventGroupSetBits+0xc0>

000000008000052c <xEventGroupSync>:
    8000052c:	0ff00793          	li	a5,255
    80000530:	07e2                	slli	a5,a5,0x18
    80000532:	8ff1                	and	a5,a5,a2
    80000534:	c789                	beqz	a5,8000053e <xEventGroupSync+0x12>
    80000536:	30047073          	csrci	mstatus,8
    8000053a:	9002                	ebreak
    8000053c:	a001                	j	8000053c <xEventGroupSync+0x10>
    8000053e:	7179                	addi	sp,sp,-48
    80000540:	f022                	sd	s0,32(sp)
    80000542:	f406                	sd	ra,40(sp)
    80000544:	ec26                	sd	s1,24(sp)
    80000546:	e84a                	sd	s2,16(sp)
    80000548:	e44e                	sd	s3,8(sp)
    8000054a:	e052                	sd	s4,0(sp)
    8000054c:	8432                	mv	s0,a2
    8000054e:	e609                	bnez	a2,80000558 <xEventGroupSync+0x2c>
    80000550:	30047073          	csrci	mstatus,8
    80000554:	9002                	ebreak
    80000556:	a001                	j	80000556 <xEventGroupSync+0x2a>
    80000558:	84aa                	mv	s1,a0
    8000055a:	89ae                	mv	s3,a1
    8000055c:	8a36                	mv	s4,a3
    8000055e:	621020ef          	jal	ra,8000337e <xTaskGetSchedulerState>
    80000562:	e131                	bnez	a0,800005a6 <xEventGroupSync+0x7a>
    80000564:	000a0663          	beqz	s4,80000570 <xEventGroupSync+0x44>
    80000568:	30047073          	csrci	mstatus,8
    8000056c:	9002                	ebreak
    8000056e:	a001                	j	8000056e <xEventGroupSync+0x42>
    80000570:	7f8020ef          	jal	ra,80002d68 <vTaskSuspendAll>
    80000574:	0004b903          	ld	s2,0(s1)
    80000578:	85ce                	mv	a1,s3
    8000057a:	8526                	mv	a0,s1
    8000057c:	0129e933          	or	s2,s3,s2
    80000580:	eebff0ef          	jal	ra,8000046a <xEventGroupSetBits>
    80000584:	012477b3          	and	a5,s0,s2
    80000588:	0af40363          	beq	s0,a5,8000062e <xEventGroupSync+0x102>
    8000058c:	0004b903          	ld	s2,0(s1)
    80000590:	7e4020ef          	jal	ra,80002d74 <xTaskResumeAll>
    80000594:	70a2                	ld	ra,40(sp)
    80000596:	7402                	ld	s0,32(sp)
    80000598:	64e2                	ld	s1,24(sp)
    8000059a:	69a2                	ld	s3,8(sp)
    8000059c:	6a02                	ld	s4,0(sp)
    8000059e:	854a                	mv	a0,s2
    800005a0:	6942                	ld	s2,16(sp)
    800005a2:	6145                	addi	sp,sp,48
    800005a4:	8082                	ret
    800005a6:	7c2020ef          	jal	ra,80002d68 <vTaskSuspendAll>
    800005aa:	0004b903          	ld	s2,0(s1)
    800005ae:	85ce                	mv	a1,s3
    800005b0:	8526                	mv	a0,s1
    800005b2:	01396933          	or	s2,s2,s3
    800005b6:	eb5ff0ef          	jal	ra,8000046a <xEventGroupSetBits>
    800005ba:	008977b3          	and	a5,s2,s0
    800005be:	06878863          	beq	a5,s0,8000062e <xEventGroupSync+0x102>
    800005c2:	fc0a05e3          	beqz	s4,8000058c <xEventGroupSync+0x60>
    800005c6:	050005b7          	lui	a1,0x5000
    800005ca:	8652                	mv	a2,s4
    800005cc:	8dc1                	or	a1,a1,s0
    800005ce:	00848513          	addi	a0,s1,8
    800005d2:	25b020ef          	jal	ra,8000302c <vTaskPlaceOnUnorderedEventList>
    800005d6:	79e020ef          	jal	ra,80002d74 <xTaskResumeAll>
    800005da:	e119                	bnez	a0,800005e0 <xEventGroupSync+0xb4>
    800005dc:	00000073          	ecall
    800005e0:	7e1020ef          	jal	ra,800035c0 <uxTaskResetEventItemValue>
    800005e4:	020007b7          	lui	a5,0x2000
    800005e8:	8fe9                	and	a5,a5,a0
    800005ea:	892a                	mv	s2,a0
    800005ec:	eb95                	bnez	a5,80000620 <xEventGroupSync+0xf4>
    800005ee:	30047073          	csrci	mstatus,8
    800005f2:	81018713          	addi	a4,gp,-2032 # 80027d98 <xCriticalNesting>
    800005f6:	631c                	ld	a5,0(a4)
    800005f8:	00178693          	addi	a3,a5,1 # 2000001 <__stack_size+0x1fffed5>
    800005fc:	e314                	sd	a3,0(a4)
    800005fe:	0004b903          	ld	s2,0(s1)
    80000602:	012476b3          	and	a3,s0,s2
    80000606:	00869963          	bne	a3,s0,80000618 <xEventGroupSync+0xec>
    8000060a:	fff44793          	not	a5,s0
    8000060e:	0127f7b3          	and	a5,a5,s2
    80000612:	e09c                	sd	a5,0(s1)
    80000614:	631c                	ld	a5,0(a4)
    80000616:	17fd                	addi	a5,a5,-1
    80000618:	e31c                	sd	a5,0(a4)
    8000061a:	e399                	bnez	a5,80000620 <xEventGroupSync+0xf4>
    8000061c:	30046073          	csrsi	mstatus,8
    80000620:	f0100793          	li	a5,-255
    80000624:	07e2                	slli	a5,a5,0x18
    80000626:	17fd                	addi	a5,a5,-1
    80000628:	00f97933          	and	s2,s2,a5
    8000062c:	b7a5                	j	80000594 <xEventGroupSync+0x68>
    8000062e:	609c                	ld	a5,0(s1)
    80000630:	fff44413          	not	s0,s0
    80000634:	8fe1                	and	a5,a5,s0
    80000636:	e09c                	sd	a5,0(s1)
    80000638:	73c020ef          	jal	ra,80002d74 <xTaskResumeAll>
    8000063c:	bfa1                	j	80000594 <xEventGroupSync+0x68>

000000008000063e <vEventGroupDelete>:
    8000063e:	c915                	beqz	a0,80000672 <vEventGroupDelete+0x34>
    80000640:	1101                	addi	sp,sp,-32
    80000642:	e822                	sd	s0,16(sp)
    80000644:	e426                	sd	s1,8(sp)
    80000646:	842a                	mv	s0,a0
    80000648:	ec06                	sd	ra,24(sp)
    8000064a:	71e020ef          	jal	ra,80002d68 <vTaskSuspendAll>
    8000064e:	641c                	ld	a5,8(s0)
    80000650:	01840493          	addi	s1,s0,24
    80000654:	e791                	bnez	a5,80000660 <vEventGroupDelete+0x22>
    80000656:	a015                	j	8000067a <vEventGroupDelete+0x3c>
    80000658:	377020ef          	jal	ra,800031ce <vTaskRemoveFromUnorderedEventList>
    8000065c:	641c                	ld	a5,8(s0)
    8000065e:	cf91                	beqz	a5,8000067a <vEventGroupDelete+0x3c>
    80000660:	7008                	ld	a0,32(s0)
    80000662:	020005b7          	lui	a1,0x2000
    80000666:	fe9519e3          	bne	a0,s1,80000658 <vEventGroupDelete+0x1a>
    8000066a:	30047073          	csrci	mstatus,8
    8000066e:	9002                	ebreak
    80000670:	a001                	j	80000670 <vEventGroupDelete+0x32>
    80000672:	30047073          	csrci	mstatus,8
    80000676:	9002                	ebreak
    80000678:	a001                	j	80000678 <vEventGroupDelete+0x3a>
    8000067a:	6fa020ef          	jal	ra,80002d74 <xTaskResumeAll>
    8000067e:	8522                	mv	a0,s0
    80000680:	6442                	ld	s0,16(sp)
    80000682:	60e2                	ld	ra,24(sp)
    80000684:	64a2                	ld	s1,8(sp)
    80000686:	6105                	addi	sp,sp,32
    80000688:	4bd0306f          	j	80004344 <vPortFree>

000000008000068c <vEventGroupSetBitsCallback>:
    8000068c:	1582                	slli	a1,a1,0x20
    8000068e:	9181                	srli	a1,a1,0x20
    80000690:	bbe9                	j	8000046a <xEventGroupSetBits>

0000000080000692 <vEventGroupClearBitsCallback>:
    80000692:	cd15                	beqz	a0,800006ce <vEventGroupClearBitsCallback+0x3c>
    80000694:	ff0007b7          	lui	a5,0xff000
    80000698:	8fed                	and	a5,a5,a1
    8000069a:	c789                	beqz	a5,800006a4 <vEventGroupClearBitsCallback+0x12>
    8000069c:	30047073          	csrci	mstatus,8
    800006a0:	9002                	ebreak
    800006a2:	a001                	j	800006a2 <vEventGroupClearBitsCallback+0x10>
    800006a4:	30047073          	csrci	mstatus,8
    800006a8:	81018713          	addi	a4,gp,-2032 # 80027d98 <xCriticalNesting>
    800006ac:	6314                	ld	a3,0(a4)
    800006ae:	1582                	slli	a1,a1,0x20
    800006b0:	9181                	srli	a1,a1,0x20
    800006b2:	0685                	addi	a3,a3,1
    800006b4:	e314                	sd	a3,0(a4)
    800006b6:	6114                	ld	a3,0(a0)
    800006b8:	fff5c793          	not	a5,a1
    800006bc:	8ff5                	and	a5,a5,a3
    800006be:	e11c                	sd	a5,0(a0)
    800006c0:	631c                	ld	a5,0(a4)
    800006c2:	17fd                	addi	a5,a5,-1
    800006c4:	e31c                	sd	a5,0(a4)
    800006c6:	e399                	bnez	a5,800006cc <vEventGroupClearBitsCallback+0x3a>
    800006c8:	30046073          	csrsi	mstatus,8
    800006cc:	8082                	ret
    800006ce:	30047073          	csrci	mstatus,8
    800006d2:	9002                	ebreak
    800006d4:	a001                	j	800006d4 <vEventGroupClearBitsCallback+0x42>

00000000800006d6 <vListInitialise>:
    800006d6:	01050793          	addi	a5,a0,16
    800006da:	577d                	li	a4,-1
    800006dc:	e51c                	sd	a5,8(a0)
    800006de:	e918                	sd	a4,16(a0)
    800006e0:	ed1c                	sd	a5,24(a0)
    800006e2:	f11c                	sd	a5,32(a0)
    800006e4:	00053023          	sd	zero,0(a0)
    800006e8:	8082                	ret

00000000800006ea <vListInitialiseItem>:
    800006ea:	02053023          	sd	zero,32(a0)
    800006ee:	8082                	ret

00000000800006f0 <vListInsertEnd>:
    800006f0:	651c                	ld	a5,8(a0)
    800006f2:	e59c                	sd	a5,8(a1)
    800006f4:	6b98                	ld	a4,16(a5)
    800006f6:	e998                	sd	a4,16(a1)
    800006f8:	e70c                	sd	a1,8(a4)
    800006fa:	eb8c                	sd	a1,16(a5)
    800006fc:	f188                	sd	a0,32(a1)
    800006fe:	611c                	ld	a5,0(a0)
    80000700:	0785                	addi	a5,a5,1
    80000702:	e11c                	sd	a5,0(a0)
    80000704:	8082                	ret

0000000080000706 <vListInsert>:
    80000706:	6190                	ld	a2,0(a1)
    80000708:	577d                	li	a4,-1
    8000070a:	01050793          	addi	a5,a0,16
    8000070e:	02e60063          	beq	a2,a4,8000072e <vListInsert+0x28>
    80000712:	86be                	mv	a3,a5
    80000714:	679c                	ld	a5,8(a5)
    80000716:	6398                	ld	a4,0(a5)
    80000718:	fee67de3          	bgeu	a2,a4,80000712 <vListInsert+0xc>
    8000071c:	e59c                	sd	a5,8(a1)
    8000071e:	eb8c                	sd	a1,16(a5)
    80000720:	e994                	sd	a3,16(a1)
    80000722:	e68c                	sd	a1,8(a3)
    80000724:	f188                	sd	a0,32(a1)
    80000726:	611c                	ld	a5,0(a0)
    80000728:	0785                	addi	a5,a5,1
    8000072a:	e11c                	sd	a5,0(a0)
    8000072c:	8082                	ret
    8000072e:	7114                	ld	a3,32(a0)
    80000730:	669c                	ld	a5,8(a3)
    80000732:	b7ed                	j	8000071c <vListInsert+0x16>

0000000080000734 <uxListRemove>:
    80000734:	6514                	ld	a3,8(a0)
    80000736:	6918                	ld	a4,16(a0)
    80000738:	711c                	ld	a5,32(a0)
    8000073a:	ea98                	sd	a4,16(a3)
    8000073c:	6514                	ld	a3,8(a0)
    8000073e:	e714                	sd	a3,8(a4)
    80000740:	6798                	ld	a4,8(a5)
    80000742:	00a70963          	beq	a4,a0,80000754 <uxListRemove+0x20>
    80000746:	02053023          	sd	zero,32(a0)
    8000074a:	6398                	ld	a4,0(a5)
    8000074c:	177d                	addi	a4,a4,-1
    8000074e:	e398                	sd	a4,0(a5)
    80000750:	6388                	ld	a0,0(a5)
    80000752:	8082                	ret
    80000754:	6918                	ld	a4,16(a0)
    80000756:	e798                	sd	a4,8(a5)
    80000758:	02053023          	sd	zero,32(a0)
    8000075c:	6398                	ld	a4,0(a5)
    8000075e:	177d                	addi	a4,a4,-1
    80000760:	e398                	sd	a4,0(a5)
    80000762:	6388                	ld	a0,0(a5)
    80000764:	8082                	ret

0000000080000766 <prvCopyDataToQueue>:
    80000766:	1101                	addi	sp,sp,-32
    80000768:	e822                	sd	s0,16(sp)
    8000076a:	ec06                	sd	ra,24(sp)
    8000076c:	e426                	sd	s1,8(sp)
    8000076e:	e04a                	sd	s2,0(sp)
    80000770:	615c                	ld	a5,128(a0)
    80000772:	7924                	ld	s1,112(a0)
    80000774:	842a                	mv	s0,a0
    80000776:	ef81                	bnez	a5,8000078e <prvCopyDataToQueue+0x28>
    80000778:	611c                	ld	a5,0(a0)
    8000077a:	0485                	addi	s1,s1,1
    8000077c:	4501                	li	a0,0
    8000077e:	cfa5                	beqz	a5,800007f6 <prvCopyDataToQueue+0x90>
    80000780:	f824                	sd	s1,112(s0)
    80000782:	60e2                	ld	ra,24(sp)
    80000784:	6442                	ld	s0,16(sp)
    80000786:	64a2                	ld	s1,8(sp)
    80000788:	6902                	ld	s2,0(sp)
    8000078a:	6105                	addi	sp,sp,32
    8000078c:	8082                	ret
    8000078e:	8932                	mv	s2,a2
    80000790:	e61d                	bnez	a2,800007be <prvCopyDataToQueue+0x58>
    80000792:	6508                	ld	a0,8(a0)
    80000794:	863e                	mv	a2,a5
    80000796:	0485                	addi	s1,s1,1
    80000798:	484160ef          	jal	ra,80016c1c <memcpy>
    8000079c:	641c                	ld	a5,8(s0)
    8000079e:	6054                	ld	a3,128(s0)
    800007a0:	6818                	ld	a4,16(s0)
    800007a2:	4501                	li	a0,0
    800007a4:	97b6                	add	a5,a5,a3
    800007a6:	e41c                	sd	a5,8(s0)
    800007a8:	fce7ece3          	bltu	a5,a4,80000780 <prvCopyDataToQueue+0x1a>
    800007ac:	601c                	ld	a5,0(s0)
    800007ae:	f824                	sd	s1,112(s0)
    800007b0:	e41c                	sd	a5,8(s0)
    800007b2:	60e2                	ld	ra,24(sp)
    800007b4:	6442                	ld	s0,16(sp)
    800007b6:	64a2                	ld	s1,8(sp)
    800007b8:	6902                	ld	s2,0(sp)
    800007ba:	6105                	addi	sp,sp,32
    800007bc:	8082                	ret
    800007be:	6d08                	ld	a0,24(a0)
    800007c0:	863e                	mv	a2,a5
    800007c2:	45a160ef          	jal	ra,80016c1c <memcpy>
    800007c6:	6058                	ld	a4,128(s0)
    800007c8:	6c1c                	ld	a5,24(s0)
    800007ca:	6014                	ld	a3,0(s0)
    800007cc:	40e00633          	neg	a2,a4
    800007d0:	8f99                	sub	a5,a5,a4
    800007d2:	ec1c                	sd	a5,24(s0)
    800007d4:	00d7f563          	bgeu	a5,a3,800007de <prvCopyDataToQueue+0x78>
    800007d8:	681c                	ld	a5,16(s0)
    800007da:	97b2                	add	a5,a5,a2
    800007dc:	ec1c                	sd	a5,24(s0)
    800007de:	4789                	li	a5,2
    800007e0:	02f90163          	beq	s2,a5,80000802 <prvCopyDataToQueue+0x9c>
    800007e4:	0485                	addi	s1,s1,1
    800007e6:	f824                	sd	s1,112(s0)
    800007e8:	60e2                	ld	ra,24(sp)
    800007ea:	6442                	ld	s0,16(sp)
    800007ec:	64a2                	ld	s1,8(sp)
    800007ee:	6902                	ld	s2,0(sp)
    800007f0:	4501                	li	a0,0
    800007f2:	6105                	addi	sp,sp,32
    800007f4:	8082                	ret
    800007f6:	6808                	ld	a0,16(s0)
    800007f8:	469020ef          	jal	ra,80003460 <xTaskPriorityDisinherit>
    800007fc:	00043823          	sd	zero,16(s0)
    80000800:	b741                	j	80000780 <prvCopyDataToQueue+0x1a>
    80000802:	c099                	beqz	s1,80000808 <prvCopyDataToQueue+0xa2>
    80000804:	4501                	li	a0,0
    80000806:	bfad                	j	80000780 <prvCopyDataToQueue+0x1a>
    80000808:	4485                	li	s1,1
    8000080a:	4501                	li	a0,0
    8000080c:	bf95                	j	80000780 <prvCopyDataToQueue+0x1a>

000000008000080e <prvUnlockQueue>:
    8000080e:	7179                	addi	sp,sp,-48
    80000810:	ec26                	sd	s1,24(sp)
    80000812:	f406                	sd	ra,40(sp)
    80000814:	f022                	sd	s0,32(sp)
    80000816:	e84a                	sd	s2,16(sp)
    80000818:	e44e                	sd	s3,8(sp)
    8000081a:	84aa                	mv	s1,a0
    8000081c:	30047073          	csrci	mstatus,8
    80000820:	81018913          	addi	s2,gp,-2032 # 80027d98 <xCriticalNesting>
    80000824:	00093703          	ld	a4,0(s2)
    80000828:	08954783          	lbu	a5,137(a0)
    8000082c:	00170693          	addi	a3,a4,1 # fffffffffffc0001 <my_fat_image_end+0xffffffff7adc0001>
    80000830:	0187941b          	slliw	s0,a5,0x18
    80000834:	00d93023          	sd	a3,0(s2)
    80000838:	4184541b          	sraiw	s0,s0,0x18
    8000083c:	04805263          	blez	s0,80000880 <prvUnlockQueue+0x72>
    80000840:	04850993          	addi	s3,a0,72
    80000844:	a811                	j	80000858 <prvUnlockQueue+0x4a>
    80000846:	fff4079b          	addiw	a5,s0,-1
    8000084a:	0187941b          	slliw	s0,a5,0x18
    8000084e:	0ff7f713          	zext.b	a4,a5
    80000852:	4184541b          	sraiw	s0,s0,0x18
    80000856:	c315                	beqz	a4,8000087a <prvUnlockQueue+0x6c>
    80000858:	64bc                	ld	a5,72(s1)
    8000085a:	854e                	mv	a0,s3
    8000085c:	cf99                	beqz	a5,8000087a <prvUnlockQueue+0x6c>
    8000085e:	081020ef          	jal	ra,800030de <xTaskRemoveFromEventList>
    80000862:	d175                	beqz	a0,80000846 <prvUnlockQueue+0x38>
    80000864:	30d020ef          	jal	ra,80003370 <vTaskMissedYield>
    80000868:	fff4079b          	addiw	a5,s0,-1
    8000086c:	0187941b          	slliw	s0,a5,0x18
    80000870:	0ff7f713          	zext.b	a4,a5
    80000874:	4184541b          	sraiw	s0,s0,0x18
    80000878:	f365                	bnez	a4,80000858 <prvUnlockQueue+0x4a>
    8000087a:	00093703          	ld	a4,0(s2)
    8000087e:	177d                	addi	a4,a4,-1
    80000880:	57fd                	li	a5,-1
    80000882:	08f484a3          	sb	a5,137(s1)
    80000886:	00e93023          	sd	a4,0(s2)
    8000088a:	e319                	bnez	a4,80000890 <prvUnlockQueue+0x82>
    8000088c:	30046073          	csrsi	mstatus,8
    80000890:	30047073          	csrci	mstatus,8
    80000894:	00093703          	ld	a4,0(s2)
    80000898:	0884c783          	lbu	a5,136(s1)
    8000089c:	00170693          	addi	a3,a4,1
    800008a0:	0187941b          	slliw	s0,a5,0x18
    800008a4:	00d93023          	sd	a3,0(s2)
    800008a8:	4184541b          	sraiw	s0,s0,0x18
    800008ac:	04805263          	blez	s0,800008f0 <prvUnlockQueue+0xe2>
    800008b0:	02048993          	addi	s3,s1,32
    800008b4:	a811                	j	800008c8 <prvUnlockQueue+0xba>
    800008b6:	fff4079b          	addiw	a5,s0,-1
    800008ba:	0187941b          	slliw	s0,a5,0x18
    800008be:	0ff7f713          	zext.b	a4,a5
    800008c2:	4184541b          	sraiw	s0,s0,0x18
    800008c6:	c315                	beqz	a4,800008ea <prvUnlockQueue+0xdc>
    800008c8:	709c                	ld	a5,32(s1)
    800008ca:	854e                	mv	a0,s3
    800008cc:	cf99                	beqz	a5,800008ea <prvUnlockQueue+0xdc>
    800008ce:	011020ef          	jal	ra,800030de <xTaskRemoveFromEventList>
    800008d2:	d175                	beqz	a0,800008b6 <prvUnlockQueue+0xa8>
    800008d4:	29d020ef          	jal	ra,80003370 <vTaskMissedYield>
    800008d8:	fff4079b          	addiw	a5,s0,-1
    800008dc:	0187941b          	slliw	s0,a5,0x18
    800008e0:	0ff7f713          	zext.b	a4,a5
    800008e4:	4184541b          	sraiw	s0,s0,0x18
    800008e8:	f365                	bnez	a4,800008c8 <prvUnlockQueue+0xba>
    800008ea:	00093703          	ld	a4,0(s2)
    800008ee:	177d                	addi	a4,a4,-1
    800008f0:	57fd                	li	a5,-1
    800008f2:	08f48423          	sb	a5,136(s1)
    800008f6:	00e93023          	sd	a4,0(s2)
    800008fa:	e319                	bnez	a4,80000900 <prvUnlockQueue+0xf2>
    800008fc:	30046073          	csrsi	mstatus,8
    80000900:	70a2                	ld	ra,40(sp)
    80000902:	7402                	ld	s0,32(sp)
    80000904:	64e2                	ld	s1,24(sp)
    80000906:	6942                	ld	s2,16(sp)
    80000908:	69a2                	ld	s3,8(sp)
    8000090a:	6145                	addi	sp,sp,48
    8000090c:	8082                	ret

000000008000090e <xQueueGenericReset>:
    8000090e:	c935                	beqz	a0,80000982 <xQueueGenericReset+0x74>
    80000910:	1101                	addi	sp,sp,-32
    80000912:	e822                	sd	s0,16(sp)
    80000914:	ec06                	sd	ra,24(sp)
    80000916:	e426                	sd	s1,8(sp)
    80000918:	7d3c                	ld	a5,120(a0)
    8000091a:	842a                	mv	s0,a0
    8000091c:	cfb9                	beqz	a5,8000097a <xQueueGenericReset+0x6c>
    8000091e:	6158                	ld	a4,128(a0)
    80000920:	02e7b7b3          	mulhu	a5,a5,a4
    80000924:	ebb9                	bnez	a5,8000097a <xQueueGenericReset+0x6c>
    80000926:	30047073          	csrci	mstatus,8
    8000092a:	7d3c                	ld	a5,120(a0)
    8000092c:	6148                	ld	a0,128(a0)
    8000092e:	81018493          	addi	s1,gp,-2032 # 80027d98 <xCriticalNesting>
    80000932:	fff78613          	addi	a2,a5,-1 # fffffffffeffffff <my_fat_image_end+0xffffffff79dfffff>
    80000936:	02a78733          	mul	a4,a5,a0
    8000093a:	609c                	ld	a5,0(s1)
    8000093c:	06043823          	sd	zero,112(s0)
    80000940:	587d                	li	a6,-1
    80000942:	00178693          	addi	a3,a5,1
    80000946:	e094                	sd	a3,0(s1)
    80000948:	6014                	ld	a3,0(s0)
    8000094a:	09040423          	sb	a6,136(s0)
    8000094e:	090404a3          	sb	a6,137(s0)
    80000952:	e414                	sd	a3,8(s0)
    80000954:	02a60633          	mul	a2,a2,a0
    80000958:	9736                	add	a4,a4,a3
    8000095a:	e818                	sd	a4,16(s0)
    8000095c:	96b2                	add	a3,a3,a2
    8000095e:	ec14                	sd	a3,24(s0)
    80000960:	e58d                	bnez	a1,8000098a <xQueueGenericReset+0x7c>
    80000962:	7018                	ld	a4,32(s0)
    80000964:	ef15                	bnez	a4,800009a0 <xQueueGenericReset+0x92>
    80000966:	e09c                	sd	a5,0(s1)
    80000968:	e399                	bnez	a5,8000096e <xQueueGenericReset+0x60>
    8000096a:	30046073          	csrsi	mstatus,8
    8000096e:	60e2                	ld	ra,24(sp)
    80000970:	6442                	ld	s0,16(sp)
    80000972:	64a2                	ld	s1,8(sp)
    80000974:	4505                	li	a0,1
    80000976:	6105                	addi	sp,sp,32
    80000978:	8082                	ret
    8000097a:	30047073          	csrci	mstatus,8
    8000097e:	9002                	ebreak
    80000980:	a001                	j	80000980 <xQueueGenericReset+0x72>
    80000982:	30047073          	csrci	mstatus,8
    80000986:	9002                	ebreak
    80000988:	a001                	j	80000988 <xQueueGenericReset+0x7a>
    8000098a:	02040513          	addi	a0,s0,32
    8000098e:	d49ff0ef          	jal	ra,800006d6 <vListInitialise>
    80000992:	04840513          	addi	a0,s0,72
    80000996:	d41ff0ef          	jal	ra,800006d6 <vListInitialise>
    8000099a:	609c                	ld	a5,0(s1)
    8000099c:	17fd                	addi	a5,a5,-1
    8000099e:	b7e1                	j	80000966 <xQueueGenericReset+0x58>
    800009a0:	02040513          	addi	a0,s0,32
    800009a4:	73a020ef          	jal	ra,800030de <xTaskRemoveFromEventList>
    800009a8:	d96d                	beqz	a0,8000099a <xQueueGenericReset+0x8c>
    800009aa:	00000073          	ecall
    800009ae:	609c                	ld	a5,0(s1)
    800009b0:	17fd                	addi	a5,a5,-1
    800009b2:	bf55                	j	80000966 <xQueueGenericReset+0x58>

00000000800009b4 <xQueueGenericCreate>:
    800009b4:	c11d                	beqz	a0,800009da <xQueueGenericCreate+0x26>
    800009b6:	02a5b7b3          	mulhu	a5,a1,a0
    800009ba:	7179                	addi	sp,sp,-48
    800009bc:	f022                	sd	s0,32(sp)
    800009be:	f406                	sd	ra,40(sp)
    800009c0:	ec26                	sd	s1,24(sp)
    800009c2:	842a                	mv	s0,a0
    800009c4:	e799                	bnez	a5,800009d2 <xQueueGenericCreate+0x1e>
    800009c6:	02b50533          	mul	a0,a0,a1
    800009ca:	f6f00793          	li	a5,-145
    800009ce:	00a7fa63          	bgeu	a5,a0,800009e2 <xQueueGenericCreate+0x2e>
    800009d2:	30047073          	csrci	mstatus,8
    800009d6:	9002                	ebreak
    800009d8:	a001                	j	800009d8 <xQueueGenericCreate+0x24>
    800009da:	30047073          	csrci	mstatus,8
    800009de:	9002                	ebreak
    800009e0:	a001                	j	800009e0 <xQueueGenericCreate+0x2c>
    800009e2:	09050513          	addi	a0,a0,144
    800009e6:	e42e                	sd	a1,8(sp)
    800009e8:	7c4030ef          	jal	ra,800041ac <pvPortMalloc>
    800009ec:	84aa                	mv	s1,a0
    800009ee:	c919                	beqz	a0,80000a04 <xQueueGenericCreate+0x50>
    800009f0:	65a2                	ld	a1,8(sp)
    800009f2:	87aa                	mv	a5,a0
    800009f4:	ed91                	bnez	a1,80000a10 <xQueueGenericCreate+0x5c>
    800009f6:	e0cc                	sd	a1,128(s1)
    800009f8:	e09c                	sd	a5,0(s1)
    800009fa:	fca0                	sd	s0,120(s1)
    800009fc:	4585                	li	a1,1
    800009fe:	8526                	mv	a0,s1
    80000a00:	f0fff0ef          	jal	ra,8000090e <xQueueGenericReset>
    80000a04:	70a2                	ld	ra,40(sp)
    80000a06:	7402                	ld	s0,32(sp)
    80000a08:	8526                	mv	a0,s1
    80000a0a:	64e2                	ld	s1,24(sp)
    80000a0c:	6145                	addi	sp,sp,48
    80000a0e:	8082                	ret
    80000a10:	09050793          	addi	a5,a0,144
    80000a14:	b7cd                	j	800009f6 <xQueueGenericCreate+0x42>

0000000080000a16 <xQueueGetMutexHolder>:
    80000a16:	87aa                	mv	a5,a0
    80000a18:	c115                	beqz	a0,80000a3c <xQueueGetMutexHolder+0x26>
    80000a1a:	30047073          	csrci	mstatus,8
    80000a1e:	81018693          	addi	a3,gp,-2032 # 80027d98 <xCriticalNesting>
    80000a22:	6298                	ld	a4,0(a3)
    80000a24:	4501                	li	a0,0
    80000a26:	00170613          	addi	a2,a4,1
    80000a2a:	e290                	sd	a2,0(a3)
    80000a2c:	6390                	ld	a2,0(a5)
    80000a2e:	e211                	bnez	a2,80000a32 <xQueueGetMutexHolder+0x1c>
    80000a30:	6b88                	ld	a0,16(a5)
    80000a32:	e298                	sd	a4,0(a3)
    80000a34:	e319                	bnez	a4,80000a3a <xQueueGetMutexHolder+0x24>
    80000a36:	30046073          	csrsi	mstatus,8
    80000a3a:	8082                	ret
    80000a3c:	30047073          	csrci	mstatus,8
    80000a40:	9002                	ebreak
    80000a42:	a001                	j	80000a42 <xQueueGetMutexHolder+0x2c>

0000000080000a44 <xQueueGetMutexHolderFromISR>:
    80000a44:	87aa                	mv	a5,a0
    80000a46:	c511                	beqz	a0,80000a52 <xQueueGetMutexHolderFromISR+0xe>
    80000a48:	6118                	ld	a4,0(a0)
    80000a4a:	4501                	li	a0,0
    80000a4c:	e311                	bnez	a4,80000a50 <xQueueGetMutexHolderFromISR+0xc>
    80000a4e:	6b88                	ld	a0,16(a5)
    80000a50:	8082                	ret
    80000a52:	30047073          	csrci	mstatus,8
    80000a56:	9002                	ebreak
    80000a58:	a001                	j	80000a58 <xQueueGetMutexHolderFromISR+0x14>

0000000080000a5a <xQueueCreateCountingSemaphore>:
    80000a5a:	e509                	bnez	a0,80000a64 <xQueueCreateCountingSemaphore+0xa>
    80000a5c:	30047073          	csrci	mstatus,8
    80000a60:	9002                	ebreak
    80000a62:	a001                	j	80000a62 <xQueueCreateCountingSemaphore+0x8>
    80000a64:	1141                	addi	sp,sp,-16
    80000a66:	e022                	sd	s0,0(sp)
    80000a68:	e406                	sd	ra,8(sp)
    80000a6a:	842e                	mv	s0,a1
    80000a6c:	00b57663          	bgeu	a0,a1,80000a78 <xQueueCreateCountingSemaphore+0x1e>
    80000a70:	30047073          	csrci	mstatus,8
    80000a74:	9002                	ebreak
    80000a76:	a001                	j	80000a76 <xQueueCreateCountingSemaphore+0x1c>
    80000a78:	4609                	li	a2,2
    80000a7a:	4581                	li	a1,0
    80000a7c:	f39ff0ef          	jal	ra,800009b4 <xQueueGenericCreate>
    80000a80:	c111                	beqz	a0,80000a84 <xQueueCreateCountingSemaphore+0x2a>
    80000a82:	f920                	sd	s0,112(a0)
    80000a84:	60a2                	ld	ra,8(sp)
    80000a86:	6402                	ld	s0,0(sp)
    80000a88:	0141                	addi	sp,sp,16
    80000a8a:	8082                	ret

0000000080000a8c <xQueueGenericSend>:
    80000a8c:	711d                	addi	sp,sp,-96
    80000a8e:	ec86                	sd	ra,88(sp)
    80000a90:	e8a2                	sd	s0,80(sp)
    80000a92:	e4a6                	sd	s1,72(sp)
    80000a94:	e0ca                	sd	s2,64(sp)
    80000a96:	fc4e                	sd	s3,56(sp)
    80000a98:	f852                	sd	s4,48(sp)
    80000a9a:	f456                	sd	s5,40(sp)
    80000a9c:	e432                	sd	a2,8(sp)
    80000a9e:	12050563          	beqz	a0,80000bc8 <xQueueGenericSend+0x13c>
    80000aa2:	842a                	mv	s0,a0
    80000aa4:	8a2e                	mv	s4,a1
    80000aa6:	89b6                	mv	s3,a3
    80000aa8:	0e058663          	beqz	a1,80000b94 <xQueueGenericSend+0x108>
    80000aac:	4789                	li	a5,2
    80000aae:	00f99a63          	bne	s3,a5,80000ac2 <xQueueGenericSend+0x36>
    80000ab2:	7c38                	ld	a4,120(s0)
    80000ab4:	4785                	li	a5,1
    80000ab6:	00f70663          	beq	a4,a5,80000ac2 <xQueueGenericSend+0x36>
    80000aba:	30047073          	csrci	mstatus,8
    80000abe:	9002                	ebreak
    80000ac0:	a001                	j	80000ac0 <xQueueGenericSend+0x34>
    80000ac2:	0bd020ef          	jal	ra,8000337e <xTaskGetSchedulerState>
    80000ac6:	10050563          	beqz	a0,80000bd0 <xQueueGenericSend+0x144>
    80000aca:	30047073          	csrci	mstatus,8
    80000ace:	81018493          	addi	s1,gp,-2032 # 80027d98 <xCriticalNesting>
    80000ad2:	609c                	ld	a5,0(s1)
    80000ad4:	7838                	ld	a4,112(s0)
    80000ad6:	7c34                	ld	a3,120(s0)
    80000ad8:	00178613          	addi	a2,a5,1
    80000adc:	e090                	sd	a2,0(s1)
    80000ade:	10d76063          	bltu	a4,a3,80000bde <xQueueGenericSend+0x152>
    80000ae2:	4709                	li	a4,2
    80000ae4:	0ee98d63          	beq	s3,a4,80000bde <xQueueGenericSend+0x152>
    80000ae8:	6722                	ld	a4,8(sp)
    80000aea:	c759                	beqz	a4,80000b78 <xQueueGenericSend+0xec>
    80000aec:	0808                	addi	a0,sp,16
    80000aee:	7d4020ef          	jal	ra,800032c2 <vTaskInternalSetTimeOutState>
    80000af2:	597d                	li	s2,-1
    80000af4:	02040a93          	addi	s5,s0,32
    80000af8:	609c                	ld	a5,0(s1)
    80000afa:	17fd                	addi	a5,a5,-1
    80000afc:	e09c                	sd	a5,0(s1)
    80000afe:	e399                	bnez	a5,80000b04 <xQueueGenericSend+0x78>
    80000b00:	30046073          	csrsi	mstatus,8
    80000b04:	264020ef          	jal	ra,80002d68 <vTaskSuspendAll>
    80000b08:	30047073          	csrci	mstatus,8
    80000b0c:	08844783          	lbu	a5,136(s0)
    80000b10:	6098                	ld	a4,0(s1)
    80000b12:	0187979b          	slliw	a5,a5,0x18
    80000b16:	4187d79b          	sraiw	a5,a5,0x18
    80000b1a:	01279463          	bne	a5,s2,80000b22 <xQueueGenericSend+0x96>
    80000b1e:	08040423          	sb	zero,136(s0)
    80000b22:	08944783          	lbu	a5,137(s0)
    80000b26:	0187979b          	slliw	a5,a5,0x18
    80000b2a:	4187d79b          	sraiw	a5,a5,0x18
    80000b2e:	07278a63          	beq	a5,s2,80000ba2 <xQueueGenericSend+0x116>
    80000b32:	e319                	bnez	a4,80000b38 <xQueueGenericSend+0xac>
    80000b34:	30046073          	csrsi	mstatus,8
    80000b38:	002c                	addi	a1,sp,8
    80000b3a:	0808                	addi	a0,sp,16
    80000b3c:	794020ef          	jal	ra,800032d0 <xTaskCheckForTimeOut>
    80000b40:	e169                	bnez	a0,80000c02 <xQueueGenericSend+0x176>
    80000b42:	30047073          	csrci	mstatus,8
    80000b46:	7834                	ld	a3,112(s0)
    80000b48:	7c38                	ld	a4,120(s0)
    80000b4a:	609c                	ld	a5,0(s1)
    80000b4c:	04e68e63          	beq	a3,a4,80000ba8 <xQueueGenericSend+0x11c>
    80000b50:	e399                	bnez	a5,80000b56 <xQueueGenericSend+0xca>
    80000b52:	30046073          	csrsi	mstatus,8
    80000b56:	8522                	mv	a0,s0
    80000b58:	cb7ff0ef          	jal	ra,8000080e <prvUnlockQueue>
    80000b5c:	218020ef          	jal	ra,80002d74 <xTaskResumeAll>
    80000b60:	30047073          	csrci	mstatus,8
    80000b64:	609c                	ld	a5,0(s1)
    80000b66:	7834                	ld	a3,112(s0)
    80000b68:	7c38                	ld	a4,120(s0)
    80000b6a:	00178613          	addi	a2,a5,1
    80000b6e:	e090                	sd	a2,0(s1)
    80000b70:	06e6e763          	bltu	a3,a4,80000bde <xQueueGenericSend+0x152>
    80000b74:	6722                	ld	a4,8(sp)
    80000b76:	f349                	bnez	a4,80000af8 <xQueueGenericSend+0x6c>
    80000b78:	e09c                	sd	a5,0(s1)
    80000b7a:	4501                	li	a0,0
    80000b7c:	e399                	bnez	a5,80000b82 <xQueueGenericSend+0xf6>
    80000b7e:	30046073          	csrsi	mstatus,8
    80000b82:	60e6                	ld	ra,88(sp)
    80000b84:	6446                	ld	s0,80(sp)
    80000b86:	64a6                	ld	s1,72(sp)
    80000b88:	6906                	ld	s2,64(sp)
    80000b8a:	79e2                	ld	s3,56(sp)
    80000b8c:	7a42                	ld	s4,48(sp)
    80000b8e:	7aa2                	ld	s5,40(sp)
    80000b90:	6125                	addi	sp,sp,96
    80000b92:	8082                	ret
    80000b94:	615c                	ld	a5,128(a0)
    80000b96:	f0078be3          	beqz	a5,80000aac <xQueueGenericSend+0x20>
    80000b9a:	30047073          	csrci	mstatus,8
    80000b9e:	9002                	ebreak
    80000ba0:	a001                	j	80000ba0 <xQueueGenericSend+0x114>
    80000ba2:	080404a3          	sb	zero,137(s0)
    80000ba6:	b771                	j	80000b32 <xQueueGenericSend+0xa6>
    80000ba8:	e399                	bnez	a5,80000bae <xQueueGenericSend+0x122>
    80000baa:	30046073          	csrsi	mstatus,8
    80000bae:	65a2                	ld	a1,8(sp)
    80000bb0:	8556                	mv	a0,s5
    80000bb2:	44e020ef          	jal	ra,80003000 <vTaskPlaceOnEventList>
    80000bb6:	8522                	mv	a0,s0
    80000bb8:	c57ff0ef          	jal	ra,8000080e <prvUnlockQueue>
    80000bbc:	1b8020ef          	jal	ra,80002d74 <xTaskResumeAll>
    80000bc0:	f145                	bnez	a0,80000b60 <xQueueGenericSend+0xd4>
    80000bc2:	00000073          	ecall
    80000bc6:	bf69                	j	80000b60 <xQueueGenericSend+0xd4>
    80000bc8:	30047073          	csrci	mstatus,8
    80000bcc:	9002                	ebreak
    80000bce:	a001                	j	80000bce <xQueueGenericSend+0x142>
    80000bd0:	67a2                	ld	a5,8(sp)
    80000bd2:	ee078ce3          	beqz	a5,80000aca <xQueueGenericSend+0x3e>
    80000bd6:	30047073          	csrci	mstatus,8
    80000bda:	9002                	ebreak
    80000bdc:	a001                	j	80000bdc <xQueueGenericSend+0x150>
    80000bde:	864e                	mv	a2,s3
    80000be0:	85d2                	mv	a1,s4
    80000be2:	8522                	mv	a0,s0
    80000be4:	b83ff0ef          	jal	ra,80000766 <prvCopyDataToQueue>
    80000be8:	643c                	ld	a5,72(s0)
    80000bea:	e39d                	bnez	a5,80000c10 <xQueueGenericSend+0x184>
    80000bec:	c119                	beqz	a0,80000bf2 <xQueueGenericSend+0x166>
    80000bee:	00000073          	ecall
    80000bf2:	609c                	ld	a5,0(s1)
    80000bf4:	4505                	li	a0,1
    80000bf6:	17fd                	addi	a5,a5,-1
    80000bf8:	e09c                	sd	a5,0(s1)
    80000bfa:	f7c1                	bnez	a5,80000b82 <xQueueGenericSend+0xf6>
    80000bfc:	30046073          	csrsi	mstatus,8
    80000c00:	b749                	j	80000b82 <xQueueGenericSend+0xf6>
    80000c02:	8522                	mv	a0,s0
    80000c04:	c0bff0ef          	jal	ra,8000080e <prvUnlockQueue>
    80000c08:	16c020ef          	jal	ra,80002d74 <xTaskResumeAll>
    80000c0c:	4501                	li	a0,0
    80000c0e:	bf95                	j	80000b82 <xQueueGenericSend+0xf6>
    80000c10:	04840513          	addi	a0,s0,72
    80000c14:	4ca020ef          	jal	ra,800030de <xTaskRemoveFromEventList>
    80000c18:	dd69                	beqz	a0,80000bf2 <xQueueGenericSend+0x166>
    80000c1a:	00000073          	ecall
    80000c1e:	bfd1                	j	80000bf2 <xQueueGenericSend+0x166>

0000000080000c20 <xQueueCreateMutex>:
    80000c20:	1141                	addi	sp,sp,-16
    80000c22:	09000513          	li	a0,144
    80000c26:	e022                	sd	s0,0(sp)
    80000c28:	e406                	sd	ra,8(sp)
    80000c2a:	582030ef          	jal	ra,800041ac <pvPortMalloc>
    80000c2e:	842a                	mv	s0,a0
    80000c30:	c50d                	beqz	a0,80000c5a <xQueueCreateMutex+0x3a>
    80000c32:	e008                	sd	a0,0(s0)
    80000c34:	4785                	li	a5,1
    80000c36:	4585                	li	a1,1
    80000c38:	fd3c                	sd	a5,120(a0)
    80000c3a:	08053023          	sd	zero,128(a0)
    80000c3e:	cd1ff0ef          	jal	ra,8000090e <xQueueGenericReset>
    80000c42:	4681                	li	a3,0
    80000c44:	00043823          	sd	zero,16(s0)
    80000c48:	00043023          	sd	zero,0(s0)
    80000c4c:	00043c23          	sd	zero,24(s0)
    80000c50:	4601                	li	a2,0
    80000c52:	4581                	li	a1,0
    80000c54:	8522                	mv	a0,s0
    80000c56:	e37ff0ef          	jal	ra,80000a8c <xQueueGenericSend>
    80000c5a:	60a2                	ld	ra,8(sp)
    80000c5c:	8522                	mv	a0,s0
    80000c5e:	6402                	ld	s0,0(sp)
    80000c60:	0141                	addi	sp,sp,16
    80000c62:	8082                	ret

0000000080000c64 <xQueueGiveMutexRecursive>:
    80000c64:	c50d                	beqz	a0,80000c8e <xQueueGiveMutexRecursive+0x2a>
    80000c66:	1101                	addi	sp,sp,-32
    80000c68:	e822                	sd	s0,16(sp)
    80000c6a:	e426                	sd	s1,8(sp)
    80000c6c:	ec06                	sd	ra,24(sp)
    80000c6e:	e04a                	sd	s2,0(sp)
    80000c70:	01053903          	ld	s2,16(a0)
    80000c74:	842a                	mv	s0,a0
    80000c76:	702020ef          	jal	ra,80003378 <xTaskGetCurrentTaskHandle>
    80000c7a:	4481                	li	s1,0
    80000c7c:	00a90d63          	beq	s2,a0,80000c96 <xQueueGiveMutexRecursive+0x32>
    80000c80:	60e2                	ld	ra,24(sp)
    80000c82:	6442                	ld	s0,16(sp)
    80000c84:	6902                	ld	s2,0(sp)
    80000c86:	8526                	mv	a0,s1
    80000c88:	64a2                	ld	s1,8(sp)
    80000c8a:	6105                	addi	sp,sp,32
    80000c8c:	8082                	ret
    80000c8e:	30047073          	csrci	mstatus,8
    80000c92:	9002                	ebreak
    80000c94:	a001                	j	80000c94 <xQueueGiveMutexRecursive+0x30>
    80000c96:	6c1c                	ld	a5,24(s0)
    80000c98:	4485                	li	s1,1
    80000c9a:	17fd                	addi	a5,a5,-1
    80000c9c:	ec1c                	sd	a5,24(s0)
    80000c9e:	f3ed                	bnez	a5,80000c80 <xQueueGiveMutexRecursive+0x1c>
    80000ca0:	4681                	li	a3,0
    80000ca2:	4601                	li	a2,0
    80000ca4:	4581                	li	a1,0
    80000ca6:	8522                	mv	a0,s0
    80000ca8:	de5ff0ef          	jal	ra,80000a8c <xQueueGenericSend>
    80000cac:	bfd1                	j	80000c80 <xQueueGiveMutexRecursive+0x1c>

0000000080000cae <xQueueGenericSendFromISR>:
    80000cae:	c531                	beqz	a0,80000cfa <xQueueGenericSendFromISR+0x4c>
    80000cb0:	7179                	addi	sp,sp,-48
    80000cb2:	f022                	sd	s0,32(sp)
    80000cb4:	ec26                	sd	s1,24(sp)
    80000cb6:	f406                	sd	ra,40(sp)
    80000cb8:	e84a                	sd	s2,16(sp)
    80000cba:	e44e                	sd	s3,8(sp)
    80000cbc:	842a                	mv	s0,a0
    80000cbe:	84b2                	mv	s1,a2
    80000cc0:	c185                	beqz	a1,80000ce0 <xQueueGenericSendFromISR+0x32>
    80000cc2:	4709                	li	a4,2
    80000cc4:	7c3c                	ld	a5,120(s0)
    80000cc6:	02e68363          	beq	a3,a4,80000cec <xQueueGenericSendFromISR+0x3e>
    80000cca:	7838                	ld	a4,112(s0)
    80000ccc:	4501                	li	a0,0
    80000cce:	02f76b63          	bltu	a4,a5,80000d04 <xQueueGenericSendFromISR+0x56>
    80000cd2:	70a2                	ld	ra,40(sp)
    80000cd4:	7402                	ld	s0,32(sp)
    80000cd6:	64e2                	ld	s1,24(sp)
    80000cd8:	6942                	ld	s2,16(sp)
    80000cda:	69a2                	ld	s3,8(sp)
    80000cdc:	6145                	addi	sp,sp,48
    80000cde:	8082                	ret
    80000ce0:	615c                	ld	a5,128(a0)
    80000ce2:	d3e5                	beqz	a5,80000cc2 <xQueueGenericSendFromISR+0x14>
    80000ce4:	30047073          	csrci	mstatus,8
    80000ce8:	9002                	ebreak
    80000cea:	a001                	j	80000cea <xQueueGenericSendFromISR+0x3c>
    80000cec:	4705                	li	a4,1
    80000cee:	00e78a63          	beq	a5,a4,80000d02 <xQueueGenericSendFromISR+0x54>
    80000cf2:	30047073          	csrci	mstatus,8
    80000cf6:	9002                	ebreak
    80000cf8:	a001                	j	80000cf8 <xQueueGenericSendFromISR+0x4a>
    80000cfa:	30047073          	csrci	mstatus,8
    80000cfe:	9002                	ebreak
    80000d00:	a001                	j	80000d00 <xQueueGenericSendFromISR+0x52>
    80000d02:	783c                	ld	a5,112(s0)
    80000d04:	08944983          	lbu	s3,137(s0)
    80000d08:	783c                	ld	a5,112(s0)
    80000d0a:	8636                	mv	a2,a3
    80000d0c:	8522                	mv	a0,s0
    80000d0e:	0189991b          	slliw	s2,s3,0x18
    80000d12:	a55ff0ef          	jal	ra,80000766 <prvCopyDataToQueue>
    80000d16:	4189591b          	sraiw	s2,s2,0x18
    80000d1a:	57fd                	li	a5,-1
    80000d1c:	00f91c63          	bne	s2,a5,80000d34 <xQueueGenericSendFromISR+0x86>
    80000d20:	643c                	ld	a5,72(s0)
    80000d22:	eb9d                	bnez	a5,80000d58 <xQueueGenericSendFromISR+0xaa>
    80000d24:	4505                	li	a0,1
    80000d26:	70a2                	ld	ra,40(sp)
    80000d28:	7402                	ld	s0,32(sp)
    80000d2a:	64e2                	ld	s1,24(sp)
    80000d2c:	6942                	ld	s2,16(sp)
    80000d2e:	69a2                	ld	s3,8(sp)
    80000d30:	6145                	addi	sp,sp,48
    80000d32:	8082                	ret
    80000d34:	06c020ef          	jal	ra,80002da0 <uxTaskGetNumberOfTasks>
    80000d38:	fea976e3          	bgeu	s2,a0,80000d24 <xQueueGenericSendFromISR+0x76>
    80000d3c:	07f00793          	li	a5,127
    80000d40:	02f90663          	beq	s2,a5,80000d6c <xQueueGenericSendFromISR+0xbe>
    80000d44:	0019879b          	addiw	a5,s3,1
    80000d48:	0187979b          	slliw	a5,a5,0x18
    80000d4c:	4187d79b          	sraiw	a5,a5,0x18
    80000d50:	08f404a3          	sb	a5,137(s0)
    80000d54:	4505                	li	a0,1
    80000d56:	bfb5                	j	80000cd2 <xQueueGenericSendFromISR+0x24>
    80000d58:	04840513          	addi	a0,s0,72
    80000d5c:	382020ef          	jal	ra,800030de <xTaskRemoveFromEventList>
    80000d60:	d171                	beqz	a0,80000d24 <xQueueGenericSendFromISR+0x76>
    80000d62:	d0e9                	beqz	s1,80000d24 <xQueueGenericSendFromISR+0x76>
    80000d64:	4785                	li	a5,1
    80000d66:	e09c                	sd	a5,0(s1)
    80000d68:	4505                	li	a0,1
    80000d6a:	bf75                	j	80000d26 <xQueueGenericSendFromISR+0x78>
    80000d6c:	30047073          	csrci	mstatus,8
    80000d70:	9002                	ebreak
    80000d72:	a001                	j	80000d72 <xQueueGenericSendFromISR+0xc4>

0000000080000d74 <xQueueGiveFromISR>:
    80000d74:	c539                	beqz	a0,80000dc2 <xQueueGiveFromISR+0x4e>
    80000d76:	7179                	addi	sp,sp,-48
    80000d78:	f022                	sd	s0,32(sp)
    80000d7a:	f406                	sd	ra,40(sp)
    80000d7c:	ec26                	sd	s1,24(sp)
    80000d7e:	e84a                	sd	s2,16(sp)
    80000d80:	615c                	ld	a5,128(a0)
    80000d82:	842a                	mv	s0,a0
    80000d84:	eb9d                	bnez	a5,80000dba <xQueueGiveFromISR+0x46>
    80000d86:	611c                	ld	a5,0(a0)
    80000d88:	cba1                	beqz	a5,80000dd8 <xQueueGiveFromISR+0x64>
    80000d8a:	783c                	ld	a5,112(s0)
    80000d8c:	7c38                	ld	a4,120(s0)
    80000d8e:	02e7fe63          	bgeu	a5,a4,80000dca <xQueueGiveFromISR+0x56>
    80000d92:	08944483          	lbu	s1,137(s0)
    80000d96:	0785                	addi	a5,a5,1
    80000d98:	f83c                	sd	a5,112(s0)
    80000d9a:	0184991b          	slliw	s2,s1,0x18
    80000d9e:	4189591b          	sraiw	s2,s2,0x18
    80000da2:	57fd                	li	a5,-1
    80000da4:	04f91063          	bne	s2,a5,80000de4 <xQueueGiveFromISR+0x70>
    80000da8:	643c                	ld	a5,72(s0)
    80000daa:	efb9                	bnez	a5,80000e08 <xQueueGiveFromISR+0x94>
    80000dac:	4505                	li	a0,1
    80000dae:	70a2                	ld	ra,40(sp)
    80000db0:	7402                	ld	s0,32(sp)
    80000db2:	64e2                	ld	s1,24(sp)
    80000db4:	6942                	ld	s2,16(sp)
    80000db6:	6145                	addi	sp,sp,48
    80000db8:	8082                	ret
    80000dba:	30047073          	csrci	mstatus,8
    80000dbe:	9002                	ebreak
    80000dc0:	a001                	j	80000dc0 <xQueueGiveFromISR+0x4c>
    80000dc2:	30047073          	csrci	mstatus,8
    80000dc6:	9002                	ebreak
    80000dc8:	a001                	j	80000dc8 <xQueueGiveFromISR+0x54>
    80000dca:	4501                	li	a0,0
    80000dcc:	70a2                	ld	ra,40(sp)
    80000dce:	7402                	ld	s0,32(sp)
    80000dd0:	64e2                	ld	s1,24(sp)
    80000dd2:	6942                	ld	s2,16(sp)
    80000dd4:	6145                	addi	sp,sp,48
    80000dd6:	8082                	ret
    80000dd8:	691c                	ld	a5,16(a0)
    80000dda:	dbc5                	beqz	a5,80000d8a <xQueueGiveFromISR+0x16>
    80000ddc:	30047073          	csrci	mstatus,8
    80000de0:	9002                	ebreak
    80000de2:	a001                	j	80000de2 <xQueueGiveFromISR+0x6e>
    80000de4:	7bd010ef          	jal	ra,80002da0 <uxTaskGetNumberOfTasks>
    80000de8:	fca972e3          	bgeu	s2,a0,80000dac <xQueueGiveFromISR+0x38>
    80000dec:	07f00793          	li	a5,127
    80000df0:	02f90863          	beq	s2,a5,80000e20 <xQueueGiveFromISR+0xac>
    80000df4:	0014879b          	addiw	a5,s1,1
    80000df8:	0187979b          	slliw	a5,a5,0x18
    80000dfc:	4187d79b          	sraiw	a5,a5,0x18
    80000e00:	08f404a3          	sb	a5,137(s0)
    80000e04:	4505                	li	a0,1
    80000e06:	b7d9                	j	80000dcc <xQueueGiveFromISR+0x58>
    80000e08:	04840513          	addi	a0,s0,72
    80000e0c:	e42e                	sd	a1,8(sp)
    80000e0e:	2d0020ef          	jal	ra,800030de <xTaskRemoveFromEventList>
    80000e12:	dd49                	beqz	a0,80000dac <xQueueGiveFromISR+0x38>
    80000e14:	65a2                	ld	a1,8(sp)
    80000e16:	d9d9                	beqz	a1,80000dac <xQueueGiveFromISR+0x38>
    80000e18:	4785                	li	a5,1
    80000e1a:	e19c                	sd	a5,0(a1)
    80000e1c:	4505                	li	a0,1
    80000e1e:	bf41                	j	80000dae <xQueueGiveFromISR+0x3a>
    80000e20:	30047073          	csrci	mstatus,8
    80000e24:	9002                	ebreak
    80000e26:	a001                	j	80000e26 <xQueueGiveFromISR+0xb2>

0000000080000e28 <xQueueReceive>:
    80000e28:	711d                	addi	sp,sp,-96
    80000e2a:	ec86                	sd	ra,88(sp)
    80000e2c:	e8a2                	sd	s0,80(sp)
    80000e2e:	e4a6                	sd	s1,72(sp)
    80000e30:	e0ca                	sd	s2,64(sp)
    80000e32:	fc4e                	sd	s3,56(sp)
    80000e34:	f852                	sd	s4,48(sp)
    80000e36:	f456                	sd	s5,40(sp)
    80000e38:	e432                	sd	a2,8(sp)
    80000e3a:	16050863          	beqz	a0,80000faa <xQueueReceive+0x182>
    80000e3e:	842a                	mv	s0,a0
    80000e40:	8a2e                	mv	s4,a1
    80000e42:	c9e9                	beqz	a1,80000f14 <xQueueReceive+0xec>
    80000e44:	53a020ef          	jal	ra,8000337e <xTaskGetSchedulerState>
    80000e48:	cd79                	beqz	a0,80000f26 <xQueueReceive+0xfe>
    80000e4a:	30047073          	csrci	mstatus,8
    80000e4e:	81018493          	addi	s1,gp,-2032 # 80027d98 <xCriticalNesting>
    80000e52:	609c                	ld	a5,0(s1)
    80000e54:	07043983          	ld	s3,112(s0)
    80000e58:	00178713          	addi	a4,a5,1
    80000e5c:	e098                	sd	a4,0(s1)
    80000e5e:	0e099c63          	bnez	s3,80000f56 <xQueueReceive+0x12e>
    80000e62:	6722                	ld	a4,8(sp)
    80000e64:	cf41                	beqz	a4,80000efc <xQueueReceive+0xd4>
    80000e66:	0808                	addi	a0,sp,16
    80000e68:	45a020ef          	jal	ra,800032c2 <vTaskInternalSetTimeOutState>
    80000e6c:	597d                	li	s2,-1
    80000e6e:	04840a93          	addi	s5,s0,72
    80000e72:	609c                	ld	a5,0(s1)
    80000e74:	17fd                	addi	a5,a5,-1
    80000e76:	e09c                	sd	a5,0(s1)
    80000e78:	e399                	bnez	a5,80000e7e <xQueueReceive+0x56>
    80000e7a:	30046073          	csrsi	mstatus,8
    80000e7e:	6eb010ef          	jal	ra,80002d68 <vTaskSuspendAll>
    80000e82:	30047073          	csrci	mstatus,8
    80000e86:	08844783          	lbu	a5,136(s0)
    80000e8a:	6098                	ld	a4,0(s1)
    80000e8c:	0187979b          	slliw	a5,a5,0x18
    80000e90:	4187d79b          	sraiw	a5,a5,0x18
    80000e94:	01279463          	bne	a5,s2,80000e9c <xQueueReceive+0x74>
    80000e98:	08040423          	sb	zero,136(s0)
    80000e9c:	08944783          	lbu	a5,137(s0)
    80000ea0:	0187979b          	slliw	a5,a5,0x18
    80000ea4:	4187d79b          	sraiw	a5,a5,0x18
    80000ea8:	07278c63          	beq	a5,s2,80000f20 <xQueueReceive+0xf8>
    80000eac:	e319                	bnez	a4,80000eb2 <xQueueReceive+0x8a>
    80000eae:	30046073          	csrsi	mstatus,8
    80000eb2:	002c                	addi	a1,sp,8
    80000eb4:	0808                	addi	a0,sp,16
    80000eb6:	41a020ef          	jal	ra,800032d0 <xTaskCheckForTimeOut>
    80000eba:	e571                	bnez	a0,80000f86 <xQueueReceive+0x15e>
    80000ebc:	30047073          	csrci	mstatus,8
    80000ec0:	783c                	ld	a5,112(s0)
    80000ec2:	6098                	ld	a4,0(s1)
    80000ec4:	e7bd                	bnez	a5,80000f32 <xQueueReceive+0x10a>
    80000ec6:	e319                	bnez	a4,80000ecc <xQueueReceive+0xa4>
    80000ec8:	30046073          	csrsi	mstatus,8
    80000ecc:	65a2                	ld	a1,8(sp)
    80000ece:	8556                	mv	a0,s5
    80000ed0:	130020ef          	jal	ra,80003000 <vTaskPlaceOnEventList>
    80000ed4:	8522                	mv	a0,s0
    80000ed6:	939ff0ef          	jal	ra,8000080e <prvUnlockQueue>
    80000eda:	69b010ef          	jal	ra,80002d74 <xTaskResumeAll>
    80000ede:	e119                	bnez	a0,80000ee4 <xQueueReceive+0xbc>
    80000ee0:	00000073          	ecall
    80000ee4:	30047073          	csrci	mstatus,8
    80000ee8:	609c                	ld	a5,0(s1)
    80000eea:	07043983          	ld	s3,112(s0)
    80000eee:	00178713          	addi	a4,a5,1
    80000ef2:	e098                	sd	a4,0(s1)
    80000ef4:	06099163          	bnez	s3,80000f56 <xQueueReceive+0x12e>
    80000ef8:	6722                	ld	a4,8(sp)
    80000efa:	ff25                	bnez	a4,80000e72 <xQueueReceive+0x4a>
    80000efc:	e09c                	sd	a5,0(s1)
    80000efe:	cfd9                	beqz	a5,80000f9c <xQueueReceive+0x174>
    80000f00:	4501                	li	a0,0
    80000f02:	60e6                	ld	ra,88(sp)
    80000f04:	6446                	ld	s0,80(sp)
    80000f06:	64a6                	ld	s1,72(sp)
    80000f08:	6906                	ld	s2,64(sp)
    80000f0a:	79e2                	ld	s3,56(sp)
    80000f0c:	7a42                	ld	s4,48(sp)
    80000f0e:	7aa2                	ld	s5,40(sp)
    80000f10:	6125                	addi	sp,sp,96
    80000f12:	8082                	ret
    80000f14:	615c                	ld	a5,128(a0)
    80000f16:	d79d                	beqz	a5,80000e44 <xQueueReceive+0x1c>
    80000f18:	30047073          	csrci	mstatus,8
    80000f1c:	9002                	ebreak
    80000f1e:	a001                	j	80000f1e <xQueueReceive+0xf6>
    80000f20:	080404a3          	sb	zero,137(s0)
    80000f24:	b761                	j	80000eac <xQueueReceive+0x84>
    80000f26:	67a2                	ld	a5,8(sp)
    80000f28:	d38d                	beqz	a5,80000e4a <xQueueReceive+0x22>
    80000f2a:	30047073          	csrci	mstatus,8
    80000f2e:	9002                	ebreak
    80000f30:	a001                	j	80000f30 <xQueueReceive+0x108>
    80000f32:	e319                	bnez	a4,80000f38 <xQueueReceive+0x110>
    80000f34:	30046073          	csrsi	mstatus,8
    80000f38:	8522                	mv	a0,s0
    80000f3a:	8d5ff0ef          	jal	ra,8000080e <prvUnlockQueue>
    80000f3e:	637010ef          	jal	ra,80002d74 <xTaskResumeAll>
    80000f42:	30047073          	csrci	mstatus,8
    80000f46:	609c                	ld	a5,0(s1)
    80000f48:	07043983          	ld	s3,112(s0)
    80000f4c:	00178713          	addi	a4,a5,1
    80000f50:	e098                	sd	a4,0(s1)
    80000f52:	fa0983e3          	beqz	s3,80000ef8 <xQueueReceive+0xd0>
    80000f56:	6050                	ld	a2,128(s0)
    80000f58:	ca11                	beqz	a2,80000f6c <xQueueReceive+0x144>
    80000f5a:	6c0c                	ld	a1,24(s0)
    80000f5c:	681c                	ld	a5,16(s0)
    80000f5e:	95b2                	add	a1,a1,a2
    80000f60:	ec0c                	sd	a1,24(s0)
    80000f62:	06f5f063          	bgeu	a1,a5,80000fc2 <xQueueReceive+0x19a>
    80000f66:	8552                	mv	a0,s4
    80000f68:	4b5150ef          	jal	ra,80016c1c <memcpy>
    80000f6c:	19fd                	addi	s3,s3,-1
    80000f6e:	07343823          	sd	s3,112(s0)
    80000f72:	701c                	ld	a5,32(s0)
    80000f74:	ef9d                	bnez	a5,80000fb2 <xQueueReceive+0x18a>
    80000f76:	609c                	ld	a5,0(s1)
    80000f78:	4505                	li	a0,1
    80000f7a:	17fd                	addi	a5,a5,-1
    80000f7c:	e09c                	sd	a5,0(s1)
    80000f7e:	f3d1                	bnez	a5,80000f02 <xQueueReceive+0xda>
    80000f80:	30046073          	csrsi	mstatus,8
    80000f84:	bfbd                	j	80000f02 <xQueueReceive+0xda>
    80000f86:	8522                	mv	a0,s0
    80000f88:	887ff0ef          	jal	ra,8000080e <prvUnlockQueue>
    80000f8c:	5e9010ef          	jal	ra,80002d74 <xTaskResumeAll>
    80000f90:	30047073          	csrci	mstatus,8
    80000f94:	783c                	ld	a5,112(s0)
    80000f96:	6098                	ld	a4,0(s1)
    80000f98:	e789                	bnez	a5,80000fa2 <xQueueReceive+0x17a>
    80000f9a:	f33d                	bnez	a4,80000f00 <xQueueReceive+0xd8>
    80000f9c:	30046073          	csrsi	mstatus,8
    80000fa0:	b785                	j	80000f00 <xQueueReceive+0xd8>
    80000fa2:	f329                	bnez	a4,80000ee4 <xQueueReceive+0xbc>
    80000fa4:	30046073          	csrsi	mstatus,8
    80000fa8:	bf35                	j	80000ee4 <xQueueReceive+0xbc>
    80000faa:	30047073          	csrci	mstatus,8
    80000fae:	9002                	ebreak
    80000fb0:	a001                	j	80000fb0 <xQueueReceive+0x188>
    80000fb2:	02040513          	addi	a0,s0,32
    80000fb6:	128020ef          	jal	ra,800030de <xTaskRemoveFromEventList>
    80000fba:	dd55                	beqz	a0,80000f76 <xQueueReceive+0x14e>
    80000fbc:	00000073          	ecall
    80000fc0:	bf5d                	j	80000f76 <xQueueReceive+0x14e>
    80000fc2:	600c                	ld	a1,0(s0)
    80000fc4:	ec0c                	sd	a1,24(s0)
    80000fc6:	b745                	j	80000f66 <xQueueReceive+0x13e>

0000000080000fc8 <xQueueSemaphoreTake>:
    80000fc8:	715d                	addi	sp,sp,-80
    80000fca:	e486                	sd	ra,72(sp)
    80000fcc:	e0a2                	sd	s0,64(sp)
    80000fce:	fc26                	sd	s1,56(sp)
    80000fd0:	f84a                	sd	s2,48(sp)
    80000fd2:	f44e                	sd	s3,40(sp)
    80000fd4:	f052                	sd	s4,32(sp)
    80000fd6:	e42e                	sd	a1,8(sp)
    80000fd8:	0e050c63          	beqz	a0,800010d0 <xQueueSemaphoreTake+0x108>
    80000fdc:	615c                	ld	a5,128(a0)
    80000fde:	842a                	mv	s0,a0
    80000fe0:	c789                	beqz	a5,80000fea <xQueueSemaphoreTake+0x22>
    80000fe2:	30047073          	csrci	mstatus,8
    80000fe6:	9002                	ebreak
    80000fe8:	a001                	j	80000fe8 <xQueueSemaphoreTake+0x20>
    80000fea:	394020ef          	jal	ra,8000337e <xTaskGetSchedulerState>
    80000fee:	0e050863          	beqz	a0,800010de <xQueueSemaphoreTake+0x116>
    80000ff2:	30047073          	csrci	mstatus,8
    80000ff6:	81018493          	addi	s1,gp,-2032 # 80027d98 <xCriticalNesting>
    80000ffa:	6098                	ld	a4,0(s1)
    80000ffc:	783c                	ld	a5,112(s0)
    80000ffe:	00170693          	addi	a3,a4,1
    80001002:	e094                	sd	a3,0(s1)
    80001004:	e3c5                	bnez	a5,800010a4 <xQueueSemaphoreTake+0xdc>
    80001006:	4a01                	li	s4,0
    80001008:	4681                	li	a3,0
    8000100a:	597d                	li	s2,-1
    8000100c:	04840993          	addi	s3,s0,72
    80001010:	67a2                	ld	a5,8(sp)
    80001012:	16078463          	beqz	a5,8000117a <xQueueSemaphoreTake+0x1b2>
    80001016:	12068963          	beqz	a3,80001148 <xQueueSemaphoreTake+0x180>
    8000101a:	609c                	ld	a5,0(s1)
    8000101c:	17fd                	addi	a5,a5,-1
    8000101e:	e09c                	sd	a5,0(s1)
    80001020:	e399                	bnez	a5,80001026 <xQueueSemaphoreTake+0x5e>
    80001022:	30046073          	csrsi	mstatus,8
    80001026:	543010ef          	jal	ra,80002d68 <vTaskSuspendAll>
    8000102a:	30047073          	csrci	mstatus,8
    8000102e:	08844783          	lbu	a5,136(s0)
    80001032:	6098                	ld	a4,0(s1)
    80001034:	0187979b          	slliw	a5,a5,0x18
    80001038:	4187d79b          	sraiw	a5,a5,0x18
    8000103c:	01279463          	bne	a5,s2,80001044 <xQueueSemaphoreTake+0x7c>
    80001040:	08040423          	sb	zero,136(s0)
    80001044:	08944783          	lbu	a5,137(s0)
    80001048:	0187979b          	slliw	a5,a5,0x18
    8000104c:	4187d79b          	sraiw	a5,a5,0x18
    80001050:	09278463          	beq	a5,s2,800010d8 <xQueueSemaphoreTake+0x110>
    80001054:	e319                	bnez	a4,8000105a <xQueueSemaphoreTake+0x92>
    80001056:	30046073          	csrsi	mstatus,8
    8000105a:	002c                	addi	a1,sp,8
    8000105c:	0808                	addi	a0,sp,16
    8000105e:	272020ef          	jal	ra,800032d0 <xTaskCheckForTimeOut>
    80001062:	ed51                	bnez	a0,800010fe <xQueueSemaphoreTake+0x136>
    80001064:	30047073          	csrci	mstatus,8
    80001068:	783c                	ld	a5,112(s0)
    8000106a:	6098                	ld	a4,0(s1)
    8000106c:	e3c1                	bnez	a5,800010ec <xQueueSemaphoreTake+0x124>
    8000106e:	e319                	bnez	a4,80001074 <xQueueSemaphoreTake+0xac>
    80001070:	30046073          	csrsi	mstatus,8
    80001074:	601c                	ld	a5,0(s0)
    80001076:	0e078163          	beqz	a5,80001158 <xQueueSemaphoreTake+0x190>
    8000107a:	65a2                	ld	a1,8(sp)
    8000107c:	854e                	mv	a0,s3
    8000107e:	783010ef          	jal	ra,80003000 <vTaskPlaceOnEventList>
    80001082:	8522                	mv	a0,s0
    80001084:	f8aff0ef          	jal	ra,8000080e <prvUnlockQueue>
    80001088:	4ed010ef          	jal	ra,80002d74 <xTaskResumeAll>
    8000108c:	e119                	bnez	a0,80001092 <xQueueSemaphoreTake+0xca>
    8000108e:	00000073          	ecall
    80001092:	30047073          	csrci	mstatus,8
    80001096:	6098                	ld	a4,0(s1)
    80001098:	783c                	ld	a5,112(s0)
    8000109a:	4685                	li	a3,1
    8000109c:	00170613          	addi	a2,a4,1
    800010a0:	e090                	sd	a2,0(s1)
    800010a2:	d7bd                	beqz	a5,80001010 <xQueueSemaphoreTake+0x48>
    800010a4:	6018                	ld	a4,0(s0)
    800010a6:	17fd                	addi	a5,a5,-1
    800010a8:	f83c                	sd	a5,112(s0)
    800010aa:	0e070563          	beqz	a4,80001194 <xQueueSemaphoreTake+0x1cc>
    800010ae:	701c                	ld	a5,32(s0)
    800010b0:	ebf1                	bnez	a5,80001184 <xQueueSemaphoreTake+0x1bc>
    800010b2:	609c                	ld	a5,0(s1)
    800010b4:	4505                	li	a0,1
    800010b6:	17fd                	addi	a5,a5,-1
    800010b8:	e09c                	sd	a5,0(s1)
    800010ba:	e399                	bnez	a5,800010c0 <xQueueSemaphoreTake+0xf8>
    800010bc:	30046073          	csrsi	mstatus,8
    800010c0:	60a6                	ld	ra,72(sp)
    800010c2:	6406                	ld	s0,64(sp)
    800010c4:	74e2                	ld	s1,56(sp)
    800010c6:	7942                	ld	s2,48(sp)
    800010c8:	79a2                	ld	s3,40(sp)
    800010ca:	7a02                	ld	s4,32(sp)
    800010cc:	6161                	addi	sp,sp,80
    800010ce:	8082                	ret
    800010d0:	30047073          	csrci	mstatus,8
    800010d4:	9002                	ebreak
    800010d6:	a001                	j	800010d6 <xQueueSemaphoreTake+0x10e>
    800010d8:	080404a3          	sb	zero,137(s0)
    800010dc:	bfa5                	j	80001054 <xQueueSemaphoreTake+0x8c>
    800010de:	67a2                	ld	a5,8(sp)
    800010e0:	f00789e3          	beqz	a5,80000ff2 <xQueueSemaphoreTake+0x2a>
    800010e4:	30047073          	csrci	mstatus,8
    800010e8:	9002                	ebreak
    800010ea:	a001                	j	800010ea <xQueueSemaphoreTake+0x122>
    800010ec:	e319                	bnez	a4,800010f2 <xQueueSemaphoreTake+0x12a>
    800010ee:	30046073          	csrsi	mstatus,8
    800010f2:	8522                	mv	a0,s0
    800010f4:	f1aff0ef          	jal	ra,8000080e <prvUnlockQueue>
    800010f8:	47d010ef          	jal	ra,80002d74 <xTaskResumeAll>
    800010fc:	bf59                	j	80001092 <xQueueSemaphoreTake+0xca>
    800010fe:	8522                	mv	a0,s0
    80001100:	f0eff0ef          	jal	ra,8000080e <prvUnlockQueue>
    80001104:	471010ef          	jal	ra,80002d74 <xTaskResumeAll>
    80001108:	30047073          	csrci	mstatus,8
    8000110c:	783c                	ld	a5,112(s0)
    8000110e:	6098                	ld	a4,0(s1)
    80001110:	e3a1                	bnez	a5,80001150 <xQueueSemaphoreTake+0x188>
    80001112:	e319                	bnez	a4,80001118 <xQueueSemaphoreTake+0x150>
    80001114:	30046073          	csrsi	mstatus,8
    80001118:	020a0663          	beqz	s4,80001144 <xQueueSemaphoreTake+0x17c>
    8000111c:	30047073          	csrci	mstatus,8
    80001120:	609c                	ld	a5,0(s1)
    80001122:	642c                	ld	a1,72(s0)
    80001124:	0785                	addi	a5,a5,1
    80001126:	e09c                	sd	a5,0(s1)
    80001128:	c589                	beqz	a1,80001132 <xQueueSemaphoreTake+0x16a>
    8000112a:	703c                	ld	a5,96(s0)
    8000112c:	4595                	li	a1,5
    8000112e:	639c                	ld	a5,0(a5)
    80001130:	8d9d                	sub	a1,a1,a5
    80001132:	6808                	ld	a0,16(s0)
    80001134:	3ca020ef          	jal	ra,800034fe <vTaskPriorityDisinheritAfterTimeout>
    80001138:	609c                	ld	a5,0(s1)
    8000113a:	17fd                	addi	a5,a5,-1
    8000113c:	e09c                	sd	a5,0(s1)
    8000113e:	e399                	bnez	a5,80001144 <xQueueSemaphoreTake+0x17c>
    80001140:	30046073          	csrsi	mstatus,8
    80001144:	4501                	li	a0,0
    80001146:	bfad                	j	800010c0 <xQueueSemaphoreTake+0xf8>
    80001148:	0808                	addi	a0,sp,16
    8000114a:	178020ef          	jal	ra,800032c2 <vTaskInternalSetTimeOutState>
    8000114e:	b5f1                	j	8000101a <xQueueSemaphoreTake+0x52>
    80001150:	f329                	bnez	a4,80001092 <xQueueSemaphoreTake+0xca>
    80001152:	30046073          	csrsi	mstatus,8
    80001156:	bf35                	j	80001092 <xQueueSemaphoreTake+0xca>
    80001158:	30047073          	csrci	mstatus,8
    8000115c:	609c                	ld	a5,0(s1)
    8000115e:	6808                	ld	a0,16(s0)
    80001160:	0785                	addi	a5,a5,1
    80001162:	e09c                	sd	a5,0(s1)
    80001164:	22e020ef          	jal	ra,80003392 <xTaskPriorityInherit>
    80001168:	609c                	ld	a5,0(s1)
    8000116a:	8a2a                	mv	s4,a0
    8000116c:	17fd                	addi	a5,a5,-1
    8000116e:	e09c                	sd	a5,0(s1)
    80001170:	f00795e3          	bnez	a5,8000107a <xQueueSemaphoreTake+0xb2>
    80001174:	30046073          	csrsi	mstatus,8
    80001178:	b709                	j	8000107a <xQueueSemaphoreTake+0xb2>
    8000117a:	e098                	sd	a4,0(s1)
    8000117c:	f761                	bnez	a4,80001144 <xQueueSemaphoreTake+0x17c>
    8000117e:	30046073          	csrsi	mstatus,8
    80001182:	b7c9                	j	80001144 <xQueueSemaphoreTake+0x17c>
    80001184:	02040513          	addi	a0,s0,32
    80001188:	757010ef          	jal	ra,800030de <xTaskRemoveFromEventList>
    8000118c:	d11d                	beqz	a0,800010b2 <xQueueSemaphoreTake+0xea>
    8000118e:	00000073          	ecall
    80001192:	b705                	j	800010b2 <xQueueSemaphoreTake+0xea>
    80001194:	442020ef          	jal	ra,800035d6 <pvTaskIncrementMutexHeldCount>
    80001198:	e808                	sd	a0,16(s0)
    8000119a:	bf11                	j	800010ae <xQueueSemaphoreTake+0xe6>

000000008000119c <xQueueTakeMutexRecursive>:
    8000119c:	c531                	beqz	a0,800011e8 <xQueueTakeMutexRecursive+0x4c>
    8000119e:	1101                	addi	sp,sp,-32
    800011a0:	e822                	sd	s0,16(sp)
    800011a2:	e426                	sd	s1,8(sp)
    800011a4:	ec06                	sd	ra,24(sp)
    800011a6:	e04a                	sd	s2,0(sp)
    800011a8:	01053903          	ld	s2,16(a0)
    800011ac:	842a                	mv	s0,a0
    800011ae:	84ae                	mv	s1,a1
    800011b0:	1c8020ef          	jal	ra,80003378 <xTaskGetCurrentTaskHandle>
    800011b4:	02a90063          	beq	s2,a0,800011d4 <xQueueTakeMutexRecursive+0x38>
    800011b8:	85a6                	mv	a1,s1
    800011ba:	8522                	mv	a0,s0
    800011bc:	e0dff0ef          	jal	ra,80000fc8 <xQueueSemaphoreTake>
    800011c0:	cd11                	beqz	a0,800011dc <xQueueTakeMutexRecursive+0x40>
    800011c2:	6c1c                	ld	a5,24(s0)
    800011c4:	0785                	addi	a5,a5,1
    800011c6:	ec1c                	sd	a5,24(s0)
    800011c8:	60e2                	ld	ra,24(sp)
    800011ca:	6442                	ld	s0,16(sp)
    800011cc:	64a2                	ld	s1,8(sp)
    800011ce:	6902                	ld	s2,0(sp)
    800011d0:	6105                	addi	sp,sp,32
    800011d2:	8082                	ret
    800011d4:	6c1c                	ld	a5,24(s0)
    800011d6:	4505                	li	a0,1
    800011d8:	0785                	addi	a5,a5,1
    800011da:	ec1c                	sd	a5,24(s0)
    800011dc:	60e2                	ld	ra,24(sp)
    800011de:	6442                	ld	s0,16(sp)
    800011e0:	64a2                	ld	s1,8(sp)
    800011e2:	6902                	ld	s2,0(sp)
    800011e4:	6105                	addi	sp,sp,32
    800011e6:	8082                	ret
    800011e8:	30047073          	csrci	mstatus,8
    800011ec:	9002                	ebreak
    800011ee:	a001                	j	800011ee <xQueueTakeMutexRecursive+0x52>

00000000800011f0 <xQueuePeek>:
    800011f0:	715d                	addi	sp,sp,-80
    800011f2:	e486                	sd	ra,72(sp)
    800011f4:	e0a2                	sd	s0,64(sp)
    800011f6:	fc26                	sd	s1,56(sp)
    800011f8:	f84a                	sd	s2,48(sp)
    800011fa:	f44e                	sd	s3,40(sp)
    800011fc:	f052                	sd	s4,32(sp)
    800011fe:	e432                	sd	a2,8(sp)
    80001200:	16050363          	beqz	a0,80001366 <xQueuePeek+0x176>
    80001204:	842a                	mv	s0,a0
    80001206:	89ae                	mv	s3,a1
    80001208:	c5e9                	beqz	a1,800012d2 <xQueuePeek+0xe2>
    8000120a:	174020ef          	jal	ra,8000337e <xTaskGetSchedulerState>
    8000120e:	c979                	beqz	a0,800012e4 <xQueuePeek+0xf4>
    80001210:	30047073          	csrci	mstatus,8
    80001214:	81018493          	addi	s1,gp,-2032 # 80027d98 <xCriticalNesting>
    80001218:	609c                	ld	a5,0(s1)
    8000121a:	7838                	ld	a4,112(s0)
    8000121c:	00178693          	addi	a3,a5,1
    80001220:	e094                	sd	a3,0(s1)
    80001222:	0e071763          	bnez	a4,80001310 <xQueuePeek+0x120>
    80001226:	6722                	ld	a4,8(sp)
    80001228:	cb51                	beqz	a4,800012bc <xQueuePeek+0xcc>
    8000122a:	0808                	addi	a0,sp,16
    8000122c:	096020ef          	jal	ra,800032c2 <vTaskInternalSetTimeOutState>
    80001230:	597d                	li	s2,-1
    80001232:	04840a13          	addi	s4,s0,72
    80001236:	609c                	ld	a5,0(s1)
    80001238:	17fd                	addi	a5,a5,-1
    8000123a:	e09c                	sd	a5,0(s1)
    8000123c:	e399                	bnez	a5,80001242 <xQueuePeek+0x52>
    8000123e:	30046073          	csrsi	mstatus,8
    80001242:	327010ef          	jal	ra,80002d68 <vTaskSuspendAll>
    80001246:	30047073          	csrci	mstatus,8
    8000124a:	08844783          	lbu	a5,136(s0)
    8000124e:	6098                	ld	a4,0(s1)
    80001250:	0187979b          	slliw	a5,a5,0x18
    80001254:	4187d79b          	sraiw	a5,a5,0x18
    80001258:	01279463          	bne	a5,s2,80001260 <xQueuePeek+0x70>
    8000125c:	08040423          	sb	zero,136(s0)
    80001260:	08944783          	lbu	a5,137(s0)
    80001264:	0187979b          	slliw	a5,a5,0x18
    80001268:	4187d79b          	sraiw	a5,a5,0x18
    8000126c:	07278963          	beq	a5,s2,800012de <xQueuePeek+0xee>
    80001270:	e319                	bnez	a4,80001276 <xQueuePeek+0x86>
    80001272:	30046073          	csrsi	mstatus,8
    80001276:	002c                	addi	a1,sp,8
    80001278:	0808                	addi	a0,sp,16
    8000127a:	056020ef          	jal	ra,800032d0 <xTaskCheckForTimeOut>
    8000127e:	e171                	bnez	a0,80001342 <xQueuePeek+0x152>
    80001280:	30047073          	csrci	mstatus,8
    80001284:	783c                	ld	a5,112(s0)
    80001286:	6098                	ld	a4,0(s1)
    80001288:	e7a5                	bnez	a5,800012f0 <xQueuePeek+0x100>
    8000128a:	e319                	bnez	a4,80001290 <xQueuePeek+0xa0>
    8000128c:	30046073          	csrsi	mstatus,8
    80001290:	65a2                	ld	a1,8(sp)
    80001292:	8552                	mv	a0,s4
    80001294:	56d010ef          	jal	ra,80003000 <vTaskPlaceOnEventList>
    80001298:	8522                	mv	a0,s0
    8000129a:	d74ff0ef          	jal	ra,8000080e <prvUnlockQueue>
    8000129e:	2d7010ef          	jal	ra,80002d74 <xTaskResumeAll>
    800012a2:	e119                	bnez	a0,800012a8 <xQueuePeek+0xb8>
    800012a4:	00000073          	ecall
    800012a8:	30047073          	csrci	mstatus,8
    800012ac:	609c                	ld	a5,0(s1)
    800012ae:	7838                	ld	a4,112(s0)
    800012b0:	00178693          	addi	a3,a5,1
    800012b4:	e094                	sd	a3,0(s1)
    800012b6:	ef29                	bnez	a4,80001310 <xQueuePeek+0x120>
    800012b8:	6722                	ld	a4,8(sp)
    800012ba:	ff35                	bnez	a4,80001236 <xQueuePeek+0x46>
    800012bc:	e09c                	sd	a5,0(s1)
    800012be:	cfc9                	beqz	a5,80001358 <xQueuePeek+0x168>
    800012c0:	4501                	li	a0,0
    800012c2:	60a6                	ld	ra,72(sp)
    800012c4:	6406                	ld	s0,64(sp)
    800012c6:	74e2                	ld	s1,56(sp)
    800012c8:	7942                	ld	s2,48(sp)
    800012ca:	79a2                	ld	s3,40(sp)
    800012cc:	7a02                	ld	s4,32(sp)
    800012ce:	6161                	addi	sp,sp,80
    800012d0:	8082                	ret
    800012d2:	615c                	ld	a5,128(a0)
    800012d4:	db9d                	beqz	a5,8000120a <xQueuePeek+0x1a>
    800012d6:	30047073          	csrci	mstatus,8
    800012da:	9002                	ebreak
    800012dc:	a001                	j	800012dc <xQueuePeek+0xec>
    800012de:	080404a3          	sb	zero,137(s0)
    800012e2:	b779                	j	80001270 <xQueuePeek+0x80>
    800012e4:	67a2                	ld	a5,8(sp)
    800012e6:	d78d                	beqz	a5,80001210 <xQueuePeek+0x20>
    800012e8:	30047073          	csrci	mstatus,8
    800012ec:	9002                	ebreak
    800012ee:	a001                	j	800012ee <xQueuePeek+0xfe>
    800012f0:	e319                	bnez	a4,800012f6 <xQueuePeek+0x106>
    800012f2:	30046073          	csrsi	mstatus,8
    800012f6:	8522                	mv	a0,s0
    800012f8:	d16ff0ef          	jal	ra,8000080e <prvUnlockQueue>
    800012fc:	279010ef          	jal	ra,80002d74 <xTaskResumeAll>
    80001300:	30047073          	csrci	mstatus,8
    80001304:	609c                	ld	a5,0(s1)
    80001306:	7838                	ld	a4,112(s0)
    80001308:	00178693          	addi	a3,a5,1
    8000130c:	e094                	sd	a3,0(s1)
    8000130e:	d74d                	beqz	a4,800012b8 <xQueuePeek+0xc8>
    80001310:	6050                	ld	a2,128(s0)
    80001312:	01843903          	ld	s2,24(s0)
    80001316:	ca11                	beqz	a2,8000132a <xQueuePeek+0x13a>
    80001318:	681c                	ld	a5,16(s0)
    8000131a:	00c905b3          	add	a1,s2,a2
    8000131e:	ec0c                	sd	a1,24(s0)
    80001320:	04f5ff63          	bgeu	a1,a5,8000137e <xQueuePeek+0x18e>
    80001324:	854e                	mv	a0,s3
    80001326:	0f7150ef          	jal	ra,80016c1c <memcpy>
    8000132a:	643c                	ld	a5,72(s0)
    8000132c:	01243c23          	sd	s2,24(s0)
    80001330:	ef9d                	bnez	a5,8000136e <xQueuePeek+0x17e>
    80001332:	609c                	ld	a5,0(s1)
    80001334:	4505                	li	a0,1
    80001336:	17fd                	addi	a5,a5,-1
    80001338:	e09c                	sd	a5,0(s1)
    8000133a:	f7c1                	bnez	a5,800012c2 <xQueuePeek+0xd2>
    8000133c:	30046073          	csrsi	mstatus,8
    80001340:	b749                	j	800012c2 <xQueuePeek+0xd2>
    80001342:	8522                	mv	a0,s0
    80001344:	ccaff0ef          	jal	ra,8000080e <prvUnlockQueue>
    80001348:	22d010ef          	jal	ra,80002d74 <xTaskResumeAll>
    8000134c:	30047073          	csrci	mstatus,8
    80001350:	783c                	ld	a5,112(s0)
    80001352:	6098                	ld	a4,0(s1)
    80001354:	e789                	bnez	a5,8000135e <xQueuePeek+0x16e>
    80001356:	f72d                	bnez	a4,800012c0 <xQueuePeek+0xd0>
    80001358:	30046073          	csrsi	mstatus,8
    8000135c:	b795                	j	800012c0 <xQueuePeek+0xd0>
    8000135e:	f729                	bnez	a4,800012a8 <xQueuePeek+0xb8>
    80001360:	30046073          	csrsi	mstatus,8
    80001364:	b791                	j	800012a8 <xQueuePeek+0xb8>
    80001366:	30047073          	csrci	mstatus,8
    8000136a:	9002                	ebreak
    8000136c:	a001                	j	8000136c <xQueuePeek+0x17c>
    8000136e:	04840513          	addi	a0,s0,72
    80001372:	56d010ef          	jal	ra,800030de <xTaskRemoveFromEventList>
    80001376:	dd55                	beqz	a0,80001332 <xQueuePeek+0x142>
    80001378:	00000073          	ecall
    8000137c:	bf5d                	j	80001332 <xQueuePeek+0x142>
    8000137e:	600c                	ld	a1,0(s0)
    80001380:	ec0c                	sd	a1,24(s0)
    80001382:	b74d                	j	80001324 <xQueuePeek+0x134>

0000000080001384 <xQueueReceiveFromISR>:
    80001384:	cd1d                	beqz	a0,800013c2 <xQueueReceiveFromISR+0x3e>
    80001386:	7179                	addi	sp,sp,-48
    80001388:	f022                	sd	s0,32(sp)
    8000138a:	ec26                	sd	s1,24(sp)
    8000138c:	f406                	sd	ra,40(sp)
    8000138e:	e84a                	sd	s2,16(sp)
    80001390:	e44e                	sd	s3,8(sp)
    80001392:	842a                	mv	s0,a0
    80001394:	87ae                	mv	a5,a1
    80001396:	84b2                	mv	s1,a2
    80001398:	cd89                	beqz	a1,800013b2 <xQueueReceiveFromISR+0x2e>
    8000139a:	07053903          	ld	s2,112(a0)
    8000139e:	4501                	li	a0,0
    800013a0:	02091963          	bnez	s2,800013d2 <xQueueReceiveFromISR+0x4e>
    800013a4:	70a2                	ld	ra,40(sp)
    800013a6:	7402                	ld	s0,32(sp)
    800013a8:	64e2                	ld	s1,24(sp)
    800013aa:	6942                	ld	s2,16(sp)
    800013ac:	69a2                	ld	s3,8(sp)
    800013ae:	6145                	addi	sp,sp,48
    800013b0:	8082                	ret
    800013b2:	615c                	ld	a5,128(a0)
    800013b4:	eb99                	bnez	a5,800013ca <xQueueReceiveFromISR+0x46>
    800013b6:	07053903          	ld	s2,112(a0)
    800013ba:	08091c63          	bnez	s2,80001452 <xQueueReceiveFromISR+0xce>
    800013be:	4501                	li	a0,0
    800013c0:	b7d5                	j	800013a4 <xQueueReceiveFromISR+0x20>
    800013c2:	30047073          	csrci	mstatus,8
    800013c6:	9002                	ebreak
    800013c8:	a001                	j	800013c8 <xQueueReceiveFromISR+0x44>
    800013ca:	30047073          	csrci	mstatus,8
    800013ce:	9002                	ebreak
    800013d0:	a001                	j	800013d0 <xQueueReceiveFromISR+0x4c>
    800013d2:	08844983          	lbu	s3,136(s0)
    800013d6:	6050                	ld	a2,128(s0)
    800013d8:	0189999b          	slliw	s3,s3,0x18
    800013dc:	4189d99b          	sraiw	s3,s3,0x18
    800013e0:	ca11                	beqz	a2,800013f4 <xQueueReceiveFromISR+0x70>
    800013e2:	6c0c                	ld	a1,24(s0)
    800013e4:	6818                	ld	a4,16(s0)
    800013e6:	95b2                	add	a1,a1,a2
    800013e8:	ec0c                	sd	a1,24(s0)
    800013ea:	04e5f763          	bgeu	a1,a4,80001438 <xQueueReceiveFromISR+0xb4>
    800013ee:	853e                	mv	a0,a5
    800013f0:	02d150ef          	jal	ra,80016c1c <memcpy>
    800013f4:	197d                	addi	s2,s2,-1
    800013f6:	07243823          	sd	s2,112(s0)
    800013fa:	57fd                	li	a5,-1
    800013fc:	00f99c63          	bne	s3,a5,80001414 <xQueueReceiveFromISR+0x90>
    80001400:	701c                	ld	a5,32(s0)
    80001402:	ef95                	bnez	a5,8000143e <xQueueReceiveFromISR+0xba>
    80001404:	4505                	li	a0,1
    80001406:	70a2                	ld	ra,40(sp)
    80001408:	7402                	ld	s0,32(sp)
    8000140a:	64e2                	ld	s1,24(sp)
    8000140c:	6942                	ld	s2,16(sp)
    8000140e:	69a2                	ld	s3,8(sp)
    80001410:	6145                	addi	sp,sp,48
    80001412:	8082                	ret
    80001414:	18d010ef          	jal	ra,80002da0 <uxTaskGetNumberOfTasks>
    80001418:	fea9f6e3          	bgeu	s3,a0,80001404 <xQueueReceiveFromISR+0x80>
    8000141c:	07f00793          	li	a5,127
    80001420:	04f98063          	beq	s3,a5,80001460 <xQueueReceiveFromISR+0xdc>
    80001424:	0019879b          	addiw	a5,s3,1
    80001428:	0187979b          	slliw	a5,a5,0x18
    8000142c:	4187d79b          	sraiw	a5,a5,0x18
    80001430:	08f40423          	sb	a5,136(s0)
    80001434:	4505                	li	a0,1
    80001436:	b7bd                	j	800013a4 <xQueueReceiveFromISR+0x20>
    80001438:	600c                	ld	a1,0(s0)
    8000143a:	ec0c                	sd	a1,24(s0)
    8000143c:	bf4d                	j	800013ee <xQueueReceiveFromISR+0x6a>
    8000143e:	02040513          	addi	a0,s0,32
    80001442:	49d010ef          	jal	ra,800030de <xTaskRemoveFromEventList>
    80001446:	dd5d                	beqz	a0,80001404 <xQueueReceiveFromISR+0x80>
    80001448:	dcd5                	beqz	s1,80001404 <xQueueReceiveFromISR+0x80>
    8000144a:	4785                	li	a5,1
    8000144c:	e09c                	sd	a5,0(s1)
    8000144e:	4505                	li	a0,1
    80001450:	bf5d                	j	80001406 <xQueueReceiveFromISR+0x82>
    80001452:	08844983          	lbu	s3,136(s0)
    80001456:	0189999b          	slliw	s3,s3,0x18
    8000145a:	4189d99b          	sraiw	s3,s3,0x18
    8000145e:	bf59                	j	800013f4 <xQueueReceiveFromISR+0x70>
    80001460:	30047073          	csrci	mstatus,8
    80001464:	9002                	ebreak
    80001466:	a001                	j	80001466 <xQueueReceiveFromISR+0xe2>

0000000080001468 <xQueuePeekFromISR>:
    80001468:	c51d                	beqz	a0,80001496 <xQueuePeekFromISR+0x2e>
    8000146a:	1101                	addi	sp,sp,-32
    8000146c:	e822                	sd	s0,16(sp)
    8000146e:	ec06                	sd	ra,24(sp)
    80001470:	e426                	sd	s1,8(sp)
    80001472:	6150                	ld	a2,128(a0)
    80001474:	842a                	mv	s0,a0
    80001476:	87ae                	mv	a5,a1
    80001478:	c991                	beqz	a1,8000148c <xQueuePeekFromISR+0x24>
    8000147a:	ca11                	beqz	a2,8000148e <xQueuePeekFromISR+0x26>
    8000147c:	7938                	ld	a4,112(a0)
    8000147e:	4501                	li	a0,0
    80001480:	e31d                	bnez	a4,800014a6 <xQueuePeekFromISR+0x3e>
    80001482:	60e2                	ld	ra,24(sp)
    80001484:	6442                	ld	s0,16(sp)
    80001486:	64a2                	ld	s1,8(sp)
    80001488:	6105                	addi	sp,sp,32
    8000148a:	8082                	ret
    8000148c:	ea09                	bnez	a2,8000149e <xQueuePeekFromISR+0x36>
    8000148e:	30047073          	csrci	mstatus,8
    80001492:	9002                	ebreak
    80001494:	a001                	j	80001494 <xQueuePeekFromISR+0x2c>
    80001496:	30047073          	csrci	mstatus,8
    8000149a:	9002                	ebreak
    8000149c:	a001                	j	8000149c <xQueuePeekFromISR+0x34>
    8000149e:	30047073          	csrci	mstatus,8
    800014a2:	9002                	ebreak
    800014a4:	a001                	j	800014a4 <xQueuePeekFromISR+0x3c>
    800014a6:	6c04                	ld	s1,24(s0)
    800014a8:	6818                	ld	a4,16(s0)
    800014aa:	00c485b3          	add	a1,s1,a2
    800014ae:	ec0c                	sd	a1,24(s0)
    800014b0:	00e5e463          	bltu	a1,a4,800014b8 <xQueuePeekFromISR+0x50>
    800014b4:	600c                	ld	a1,0(s0)
    800014b6:	ec0c                	sd	a1,24(s0)
    800014b8:	853e                	mv	a0,a5
    800014ba:	762150ef          	jal	ra,80016c1c <memcpy>
    800014be:	4505                	li	a0,1
    800014c0:	ec04                	sd	s1,24(s0)
    800014c2:	b7c1                	j	80001482 <xQueuePeekFromISR+0x1a>

00000000800014c4 <uxQueueMessagesWaiting>:
    800014c4:	c911                	beqz	a0,800014d8 <uxQueueMessagesWaiting+0x14>
    800014c6:	30047073          	csrci	mstatus,8
    800014ca:	7928                	ld	a0,112(a0)
    800014cc:	8101b783          	ld	a5,-2032(gp) # 80027d98 <xCriticalNesting>
    800014d0:	e399                	bnez	a5,800014d6 <uxQueueMessagesWaiting+0x12>
    800014d2:	30046073          	csrsi	mstatus,8
    800014d6:	8082                	ret
    800014d8:	30047073          	csrci	mstatus,8
    800014dc:	9002                	ebreak
    800014de:	a001                	j	800014de <uxQueueMessagesWaiting+0x1a>

00000000800014e0 <uxQueueSpacesAvailable>:
    800014e0:	cd01                	beqz	a0,800014f8 <uxQueueSpacesAvailable+0x18>
    800014e2:	30047073          	csrci	mstatus,8
    800014e6:	7938                	ld	a4,112(a0)
    800014e8:	7d28                	ld	a0,120(a0)
    800014ea:	8101b783          	ld	a5,-2032(gp) # 80027d98 <xCriticalNesting>
    800014ee:	8d19                	sub	a0,a0,a4
    800014f0:	e399                	bnez	a5,800014f6 <uxQueueSpacesAvailable+0x16>
    800014f2:	30046073          	csrsi	mstatus,8
    800014f6:	8082                	ret
    800014f8:	30047073          	csrci	mstatus,8
    800014fc:	9002                	ebreak
    800014fe:	a001                	j	800014fe <uxQueueSpacesAvailable+0x1e>

0000000080001500 <uxQueueMessagesWaitingFromISR>:
    80001500:	c119                	beqz	a0,80001506 <uxQueueMessagesWaitingFromISR+0x6>
    80001502:	7928                	ld	a0,112(a0)
    80001504:	8082                	ret
    80001506:	30047073          	csrci	mstatus,8
    8000150a:	9002                	ebreak
    8000150c:	a001                	j	8000150c <uxQueueMessagesWaitingFromISR+0xc>

000000008000150e <vQueueDelete>:
    8000150e:	cd19                	beqz	a0,8000152c <vQueueDelete+0x1e>
    80001510:	e7018593          	addi	a1,gp,-400 # 800283f8 <xQueueRegistry>
    80001514:	87ae                	mv	a5,a1
    80001516:	4701                	li	a4,0
    80001518:	4621                	li	a2,8
    8000151a:	6794                	ld	a3,8(a5)
    8000151c:	07c1                	addi	a5,a5,16
    8000151e:	00d50b63          	beq	a0,a3,80001534 <vQueueDelete+0x26>
    80001522:	0705                	addi	a4,a4,1
    80001524:	fec71be3          	bne	a4,a2,8000151a <vQueueDelete+0xc>
    80001528:	61d0206f          	j	80004344 <vPortFree>
    8000152c:	30047073          	csrci	mstatus,8
    80001530:	9002                	ebreak
    80001532:	a001                	j	80001532 <vQueueDelete+0x24>
    80001534:	0712                	slli	a4,a4,0x4
    80001536:	972e                	add	a4,a4,a1
    80001538:	00073023          	sd	zero,0(a4)
    8000153c:	00073423          	sd	zero,8(a4)
    80001540:	6050206f          	j	80004344 <vPortFree>

0000000080001544 <uxQueueGetQueueItemSize>:
    80001544:	6148                	ld	a0,128(a0)
    80001546:	8082                	ret

0000000080001548 <uxQueueGetQueueLength>:
    80001548:	7d28                	ld	a0,120(a0)
    8000154a:	8082                	ret

000000008000154c <xQueueIsQueueEmptyFromISR>:
    8000154c:	c509                	beqz	a0,80001556 <xQueueIsQueueEmptyFromISR+0xa>
    8000154e:	7928                	ld	a0,112(a0)
    80001550:	00153513          	seqz	a0,a0
    80001554:	8082                	ret
    80001556:	30047073          	csrci	mstatus,8
    8000155a:	9002                	ebreak
    8000155c:	a001                	j	8000155c <xQueueIsQueueEmptyFromISR+0x10>

000000008000155e <xQueueIsQueueFullFromISR>:
    8000155e:	c519                	beqz	a0,8000156c <xQueueIsQueueFullFromISR+0xe>
    80001560:	793c                	ld	a5,112(a0)
    80001562:	7d28                	ld	a0,120(a0)
    80001564:	8d1d                	sub	a0,a0,a5
    80001566:	00153513          	seqz	a0,a0
    8000156a:	8082                	ret
    8000156c:	30047073          	csrci	mstatus,8
    80001570:	9002                	ebreak
    80001572:	a001                	j	80001572 <xQueueIsQueueFullFromISR+0x14>

0000000080001574 <vQueueAddToRegistry>:
    80001574:	c92d                	beqz	a0,800015e6 <vQueueAddToRegistry+0x72>
    80001576:	c1a1                	beqz	a1,800015b6 <vQueueAddToRegistry+0x42>
    80001578:	4701                	li	a4,0
    8000157a:	e7018893          	addi	a7,gp,-400 # 800283f8 <xQueueRegistry>
    8000157e:	00471793          	slli	a5,a4,0x4
    80001582:	00f886b3          	add	a3,a7,a5
    80001586:	0086b803          	ld	a6,8(a3)
    8000158a:	4601                	li	a2,0
    8000158c:	4321                	li	t1,8
    8000158e:	02a80063          	beq	a6,a0,800015ae <vQueueAddToRegistry+0x3a>
    80001592:	00170793          	addi	a5,a4,1
    80001596:	c20d                	beqz	a2,800015b8 <vQueueAddToRegistry+0x44>
    80001598:	00678d63          	beq	a5,t1,800015b2 <vQueueAddToRegistry+0x3e>
    8000159c:	873e                	mv	a4,a5
    8000159e:	00471793          	slli	a5,a4,0x4
    800015a2:	00f886b3          	add	a3,a7,a5
    800015a6:	0086b803          	ld	a6,8(a3)
    800015aa:	fea814e3          	bne	a6,a0,80001592 <vQueueAddToRegistry+0x1e>
    800015ae:	00f88633          	add	a2,a7,a5
    800015b2:	e20c                	sd	a1,0(a2)
    800015b4:	e608                	sd	a0,8(a2)
    800015b6:	8082                	ret
    800015b8:	0006b803          	ld	a6,0(a3)
    800015bc:	06c1                	addi	a3,a3,16
    800015be:	863a                	mv	a2,a4
    800015c0:	873e                	mv	a4,a5
    800015c2:	00080f63          	beqz	a6,800015e0 <vQueueAddToRegistry+0x6c>
    800015c6:	fe6788e3          	beq	a5,t1,800015b6 <vQueueAddToRegistry+0x42>
    800015ca:	6690                	ld	a2,8(a3)
    800015cc:	02c50163          	beq	a0,a2,800015ee <vQueueAddToRegistry+0x7a>
    800015d0:	0006b803          	ld	a6,0(a3)
    800015d4:	0785                	addi	a5,a5,1
    800015d6:	06c1                	addi	a3,a3,16
    800015d8:	863a                	mv	a2,a4
    800015da:	873e                	mv	a4,a5
    800015dc:	fe0815e3          	bnez	a6,800015c6 <vQueueAddToRegistry+0x52>
    800015e0:	0612                	slli	a2,a2,0x4
    800015e2:	9646                	add	a2,a2,a7
    800015e4:	bf55                	j	80001598 <vQueueAddToRegistry+0x24>
    800015e6:	30047073          	csrci	mstatus,8
    800015ea:	9002                	ebreak
    800015ec:	a001                	j	800015ec <vQueueAddToRegistry+0x78>
    800015ee:	0792                	slli	a5,a5,0x4
    800015f0:	00f88633          	add	a2,a7,a5
    800015f4:	bf7d                	j	800015b2 <vQueueAddToRegistry+0x3e>

00000000800015f6 <pcQueueGetName>:
    800015f6:	cd19                	beqz	a0,80001614 <pcQueueGetName+0x1e>
    800015f8:	e7018593          	addi	a1,gp,-400 # 800283f8 <xQueueRegistry>
    800015fc:	872e                	mv	a4,a1
    800015fe:	4781                	li	a5,0
    80001600:	4621                	li	a2,8
    80001602:	6714                	ld	a3,8(a4)
    80001604:	0741                	addi	a4,a4,16
    80001606:	00a68b63          	beq	a3,a0,8000161c <pcQueueGetName+0x26>
    8000160a:	0785                	addi	a5,a5,1
    8000160c:	fec79be3          	bne	a5,a2,80001602 <pcQueueGetName+0xc>
    80001610:	4501                	li	a0,0
    80001612:	8082                	ret
    80001614:	30047073          	csrci	mstatus,8
    80001618:	9002                	ebreak
    8000161a:	a001                	j	8000161a <pcQueueGetName+0x24>
    8000161c:	0792                	slli	a5,a5,0x4
    8000161e:	97ae                	add	a5,a5,a1
    80001620:	6388                	ld	a0,0(a5)
    80001622:	8082                	ret

0000000080001624 <vQueueUnregisterQueue>:
    80001624:	cd11                	beqz	a0,80001640 <vQueueUnregisterQueue+0x1c>
    80001626:	e7018593          	addi	a1,gp,-400 # 800283f8 <xQueueRegistry>
    8000162a:	872e                	mv	a4,a1
    8000162c:	4781                	li	a5,0
    8000162e:	4621                	li	a2,8
    80001630:	6714                	ld	a3,8(a4)
    80001632:	0741                	addi	a4,a4,16
    80001634:	00d50a63          	beq	a0,a3,80001648 <vQueueUnregisterQueue+0x24>
    80001638:	0785                	addi	a5,a5,1
    8000163a:	fec79be3          	bne	a5,a2,80001630 <vQueueUnregisterQueue+0xc>
    8000163e:	8082                	ret
    80001640:	30047073          	csrci	mstatus,8
    80001644:	9002                	ebreak
    80001646:	a001                	j	80001646 <vQueueUnregisterQueue+0x22>
    80001648:	0792                	slli	a5,a5,0x4
    8000164a:	97ae                	add	a5,a5,a1
    8000164c:	0007b023          	sd	zero,0(a5)
    80001650:	0007b423          	sd	zero,8(a5)
    80001654:	8082                	ret

0000000080001656 <vQueueWaitForMessageRestricted>:
    80001656:	1141                	addi	sp,sp,-16
    80001658:	e022                	sd	s0,0(sp)
    8000165a:	e406                	sd	ra,8(sp)
    8000165c:	842a                	mv	s0,a0
    8000165e:	30047073          	csrci	mstatus,8
    80001662:	08854783          	lbu	a5,136(a0)
    80001666:	56fd                	li	a3,-1
    80001668:	8101b703          	ld	a4,-2032(gp) # 80027d98 <xCriticalNesting>
    8000166c:	0187979b          	slliw	a5,a5,0x18
    80001670:	4187d79b          	sraiw	a5,a5,0x18
    80001674:	00d79463          	bne	a5,a3,8000167c <vQueueWaitForMessageRestricted+0x26>
    80001678:	08050423          	sb	zero,136(a0)
    8000167c:	08944783          	lbu	a5,137(s0)
    80001680:	56fd                	li	a3,-1
    80001682:	0187979b          	slliw	a5,a5,0x18
    80001686:	4187d79b          	sraiw	a5,a5,0x18
    8000168a:	00d78d63          	beq	a5,a3,800016a4 <vQueueWaitForMessageRestricted+0x4e>
    8000168e:	e319                	bnez	a4,80001694 <vQueueWaitForMessageRestricted+0x3e>
    80001690:	30046073          	csrsi	mstatus,8
    80001694:	783c                	ld	a5,112(s0)
    80001696:	cb91                	beqz	a5,800016aa <vQueueWaitForMessageRestricted+0x54>
    80001698:	8522                	mv	a0,s0
    8000169a:	6402                	ld	s0,0(sp)
    8000169c:	60a2                	ld	ra,8(sp)
    8000169e:	0141                	addi	sp,sp,16
    800016a0:	96eff06f          	j	8000080e <prvUnlockQueue>
    800016a4:	080404a3          	sb	zero,137(s0)
    800016a8:	b7dd                	j	8000168e <vQueueWaitForMessageRestricted+0x38>
    800016aa:	04840513          	addi	a0,s0,72
    800016ae:	1e1010ef          	jal	ra,8000308e <vTaskPlaceOnEventListRestricted>
    800016b2:	8522                	mv	a0,s0
    800016b4:	6402                	ld	s0,0(sp)
    800016b6:	60a2                	ld	ra,8(sp)
    800016b8:	0141                	addi	sp,sp,16
    800016ba:	954ff06f          	j	8000080e <prvUnlockQueue>

00000000800016be <prvWriteBytesToBuffer.part.0>:
    800016be:	7179                	addi	sp,sp,-48
    800016c0:	f022                	sd	s0,32(sp)
    800016c2:	ec26                	sd	s1,24(sp)
    800016c4:	e84a                	sd	s2,16(sp)
    800016c6:	e44e                	sd	s3,8(sp)
    800016c8:	e052                	sd	s4,0(sp)
    800016ca:	f406                	sd	ra,40(sp)
    800016cc:	691c                	ld	a5,16(a0)
    800016ce:	892a                	mv	s2,a0
    800016d0:	8436                	mv	s0,a3
    800016d2:	40d789b3          	sub	s3,a5,a3
    800016d6:	84b2                	mv	s1,a2
    800016d8:	8a2e                	mv	s4,a1
    800016da:	01367363          	bgeu	a2,s3,800016e0 <prvWriteBytesToBuffer.part.0+0x22>
    800016de:	89b2                	mv	s3,a2
    800016e0:	01340733          	add	a4,s0,s3
    800016e4:	00e7f663          	bgeu	a5,a4,800016f0 <prvWriteBytesToBuffer.part.0+0x32>
    800016e8:	30047073          	csrci	mstatus,8
    800016ec:	9002                	ebreak
    800016ee:	a001                	j	800016ee <prvWriteBytesToBuffer.part.0+0x30>
    800016f0:	03093503          	ld	a0,48(s2)
    800016f4:	864e                	mv	a2,s3
    800016f6:	85d2                	mv	a1,s4
    800016f8:	9522                	add	a0,a0,s0
    800016fa:	522150ef          	jal	ra,80016c1c <memcpy>
    800016fe:	0299f263          	bgeu	s3,s1,80001722 <prvWriteBytesToBuffer.part.0+0x64>
    80001702:	01093783          	ld	a5,16(s2)
    80001706:	41348633          	sub	a2,s1,s3
    8000170a:	00c7f663          	bgeu	a5,a2,80001716 <prvWriteBytesToBuffer.part.0+0x58>
    8000170e:	30047073          	csrci	mstatus,8
    80001712:	9002                	ebreak
    80001714:	a001                	j	80001714 <prvWriteBytesToBuffer.part.0+0x56>
    80001716:	03093503          	ld	a0,48(s2)
    8000171a:	013a05b3          	add	a1,s4,s3
    8000171e:	4fe150ef          	jal	ra,80016c1c <memcpy>
    80001722:	01093783          	ld	a5,16(s2)
    80001726:	00940533          	add	a0,s0,s1
    8000172a:	00f56363          	bltu	a0,a5,80001730 <prvWriteBytesToBuffer.part.0+0x72>
    8000172e:	8d1d                	sub	a0,a0,a5
    80001730:	70a2                	ld	ra,40(sp)
    80001732:	7402                	ld	s0,32(sp)
    80001734:	64e2                	ld	s1,24(sp)
    80001736:	6942                	ld	s2,16(sp)
    80001738:	69a2                	ld	s3,8(sp)
    8000173a:	6a02                	ld	s4,0(sp)
    8000173c:	6145                	addi	sp,sp,48
    8000173e:	8082                	ret

0000000080001740 <prvWriteMessageToBuffer>:
    80001740:	7139                	addi	sp,sp,-64
    80001742:	f822                	sd	s0,48(sp)
    80001744:	f426                	sd	s1,40(sp)
    80001746:	ec4e                	sd	s3,24(sp)
    80001748:	fc06                	sd	ra,56(sp)
    8000174a:	f04a                	sd	s2,32(sp)
    8000174c:	03854783          	lbu	a5,56(a0)
    80001750:	00853803          	ld	a6,8(a0)
    80001754:	842a                	mv	s0,a0
    80001756:	8b85                	andi	a5,a5,1
    80001758:	89ae                	mv	s3,a1
    8000175a:	84b2                	mv	s1,a2
    8000175c:	cf89                	beqz	a5,80001776 <prvWriteMessageToBuffer+0x36>
    8000175e:	e432                	sd	a2,8(sp)
    80001760:	4901                	li	s2,0
    80001762:	02e6ff63          	bgeu	a3,a4,800017a0 <prvWriteMessageToBuffer+0x60>
    80001766:	70e2                	ld	ra,56(sp)
    80001768:	7442                	ld	s0,48(sp)
    8000176a:	74a2                	ld	s1,40(sp)
    8000176c:	69e2                	ld	s3,24(sp)
    8000176e:	854a                	mv	a0,s2
    80001770:	7902                	ld	s2,32(sp)
    80001772:	6121                	addi	sp,sp,64
    80001774:	8082                	ret
    80001776:	8936                	mv	s2,a3
    80001778:	00d67363          	bgeu	a2,a3,8000177e <prvWriteMessageToBuffer+0x3e>
    8000177c:	8932                	mv	s2,a2
    8000177e:	fe0904e3          	beqz	s2,80001766 <prvWriteMessageToBuffer+0x26>
    80001782:	864a                	mv	a2,s2
    80001784:	85ce                	mv	a1,s3
    80001786:	8522                	mv	a0,s0
    80001788:	86c2                	mv	a3,a6
    8000178a:	f35ff0ef          	jal	ra,800016be <prvWriteBytesToBuffer.part.0>
    8000178e:	e408                	sd	a0,8(s0)
    80001790:	70e2                	ld	ra,56(sp)
    80001792:	7442                	ld	s0,48(sp)
    80001794:	74a2                	ld	s1,40(sp)
    80001796:	69e2                	ld	s3,24(sp)
    80001798:	854a                	mv	a0,s2
    8000179a:	7902                	ld	s2,32(sp)
    8000179c:	6121                	addi	sp,sp,64
    8000179e:	8082                	ret
    800017a0:	86c2                	mv	a3,a6
    800017a2:	4621                	li	a2,8
    800017a4:	002c                	addi	a1,sp,8
    800017a6:	f19ff0ef          	jal	ra,800016be <prvWriteBytesToBuffer.part.0>
    800017aa:	882a                	mv	a6,a0
    800017ac:	8926                	mv	s2,s1
    800017ae:	bfc1                	j	8000177e <prvWriteMessageToBuffer+0x3e>

00000000800017b0 <prvReadBytesFromBuffer.part.0>:
    800017b0:	7179                	addi	sp,sp,-48
    800017b2:	f022                	sd	s0,32(sp)
    800017b4:	ec26                	sd	s1,24(sp)
    800017b6:	e84a                	sd	s2,16(sp)
    800017b8:	e44e                	sd	s3,8(sp)
    800017ba:	f406                	sd	ra,40(sp)
    800017bc:	6918                	ld	a4,16(a0)
    800017be:	892a                	mv	s2,a0
    800017c0:	84b6                	mv	s1,a3
    800017c2:	40d709b3          	sub	s3,a4,a3
    800017c6:	8432                	mv	s0,a2
    800017c8:	87ae                	mv	a5,a1
    800017ca:	01367363          	bgeu	a2,s3,800017d0 <prvReadBytesFromBuffer.part.0+0x20>
    800017ce:	89b2                	mv	s3,a2
    800017d0:	01347663          	bgeu	s0,s3,800017dc <prvReadBytesFromBuffer.part.0+0x2c>
    800017d4:	30047073          	csrci	mstatus,8
    800017d8:	9002                	ebreak
    800017da:	a001                	j	800017da <prvReadBytesFromBuffer.part.0+0x2a>
    800017dc:	013486b3          	add	a3,s1,s3
    800017e0:	00d77663          	bgeu	a4,a3,800017ec <prvReadBytesFromBuffer.part.0+0x3c>
    800017e4:	30047073          	csrci	mstatus,8
    800017e8:	9002                	ebreak
    800017ea:	a001                	j	800017ea <prvReadBytesFromBuffer.part.0+0x3a>
    800017ec:	03093583          	ld	a1,48(s2)
    800017f0:	864e                	mv	a2,s3
    800017f2:	853e                	mv	a0,a5
    800017f4:	95a6                	add	a1,a1,s1
    800017f6:	426150ef          	jal	ra,80016c1c <memcpy>
    800017fa:	0289e063          	bltu	s3,s0,8000181a <prvReadBytesFromBuffer.part.0+0x6a>
    800017fe:	01093783          	ld	a5,16(s2)
    80001802:	00848533          	add	a0,s1,s0
    80001806:	00f56363          	bltu	a0,a5,8000180c <prvReadBytesFromBuffer.part.0+0x5c>
    8000180a:	8d1d                	sub	a0,a0,a5
    8000180c:	70a2                	ld	ra,40(sp)
    8000180e:	7402                	ld	s0,32(sp)
    80001810:	64e2                	ld	s1,24(sp)
    80001812:	6942                	ld	s2,16(sp)
    80001814:	69a2                	ld	s3,8(sp)
    80001816:	6145                	addi	sp,sp,48
    80001818:	8082                	ret
    8000181a:	03093583          	ld	a1,48(s2)
    8000181e:	41340633          	sub	a2,s0,s3
    80001822:	954e                	add	a0,a0,s3
    80001824:	3f8150ef          	jal	ra,80016c1c <memcpy>
    80001828:	bfd9                	j	800017fe <prvReadBytesFromBuffer.part.0+0x4e>

000000008000182a <prvReadMessageFromBuffer>:
    8000182a:	7139                	addi	sp,sp,-64
    8000182c:	f822                	sd	s0,48(sp)
    8000182e:	f426                	sd	s1,40(sp)
    80001830:	ec4e                	sd	s3,24(sp)
    80001832:	e852                	sd	s4,16(sp)
    80001834:	fc06                	sd	ra,56(sp)
    80001836:	f04a                	sd	s2,32(sp)
    80001838:	03854783          	lbu	a5,56(a0)
    8000183c:	6118                	ld	a4,0(a0)
    8000183e:	842a                	mv	s0,a0
    80001840:	8b85                	andi	a5,a5,1
    80001842:	8a2e                	mv	s4,a1
    80001844:	84b2                	mv	s1,a2
    80001846:	89b6                	mv	s3,a3
    80001848:	eb95                	bnez	a5,8000187c <prvReadMessageFromBuffer+0x52>
    8000184a:	894e                	mv	s2,s3
    8000184c:	0134ed63          	bltu	s1,s3,80001866 <prvReadMessageFromBuffer+0x3c>
    80001850:	00091e63          	bnez	s2,8000186c <prvReadMessageFromBuffer+0x42>
    80001854:	70e2                	ld	ra,56(sp)
    80001856:	7442                	ld	s0,48(sp)
    80001858:	74a2                	ld	s1,40(sp)
    8000185a:	69e2                	ld	s3,24(sp)
    8000185c:	6a42                	ld	s4,16(sp)
    8000185e:	854a                	mv	a0,s2
    80001860:	7902                	ld	s2,32(sp)
    80001862:	6121                	addi	sp,sp,64
    80001864:	8082                	ret
    80001866:	8926                	mv	s2,s1
    80001868:	fe0906e3          	beqz	s2,80001854 <prvReadMessageFromBuffer+0x2a>
    8000186c:	86ba                	mv	a3,a4
    8000186e:	864a                	mv	a2,s2
    80001870:	85d2                	mv	a1,s4
    80001872:	8522                	mv	a0,s0
    80001874:	f3dff0ef          	jal	ra,800017b0 <prvReadBytesFromBuffer.part.0>
    80001878:	e008                	sd	a0,0(s0)
    8000187a:	bfe9                	j	80001854 <prvReadMessageFromBuffer+0x2a>
    8000187c:	86ba                	mv	a3,a4
    8000187e:	4621                	li	a2,8
    80001880:	002c                	addi	a1,sp,8
    80001882:	f2fff0ef          	jal	ra,800017b0 <prvReadBytesFromBuffer.part.0>
    80001886:	67a2                	ld	a5,8(sp)
    80001888:	872a                	mv	a4,a0
    8000188a:	4901                	li	s2,0
    8000188c:	fcf4e4e3          	bltu	s1,a5,80001854 <prvReadMessageFromBuffer+0x2a>
    80001890:	19e1                	addi	s3,s3,-8
    80001892:	84be                	mv	s1,a5
    80001894:	bf5d                	j	8000184a <prvReadMessageFromBuffer+0x20>

0000000080001896 <xStreamBufferGenericCreate>:
    80001896:	7179                	addi	sp,sp,-48
    80001898:	f022                	sd	s0,32(sp)
    8000189a:	ec26                	sd	s1,24(sp)
    8000189c:	f406                	sd	ra,40(sp)
    8000189e:	e84a                	sd	s2,16(sp)
    800018a0:	e44e                	sd	s3,8(sp)
    800018a2:	e052                	sd	s4,0(sp)
    800018a4:	4785                	li	a5,1
    800018a6:	842a                	mv	s0,a0
    800018a8:	84ae                	mv	s1,a1
    800018aa:	00f60e63          	beq	a2,a5,800018c6 <xStreamBufferGenericCreate+0x30>
    800018ae:	e509                	bnez	a0,800018b8 <xStreamBufferGenericCreate+0x22>
    800018b0:	30047073          	csrci	mstatus,8
    800018b4:	9002                	ebreak
    800018b6:	a001                	j	800018b6 <xStreamBufferGenericCreate+0x20>
    800018b8:	4981                	li	s3,0
    800018ba:	00947d63          	bgeu	s0,s1,800018d4 <xStreamBufferGenericCreate+0x3e>
    800018be:	30047073          	csrci	mstatus,8
    800018c2:	9002                	ebreak
    800018c4:	a001                	j	800018c4 <xStreamBufferGenericCreate+0x2e>
    800018c6:	47a1                	li	a5,8
    800018c8:	02a7ef63          	bltu	a5,a0,80001906 <xStreamBufferGenericCreate+0x70>
    800018cc:	30047073          	csrci	mstatus,8
    800018d0:	9002                	ebreak
    800018d2:	a001                	j	800018d2 <xStreamBufferGenericCreate+0x3c>
    800018d4:	fbe00793          	li	a5,-66
    800018d8:	0287e963          	bltu	a5,s0,8000190a <xStreamBufferGenericCreate+0x74>
    800018dc:	04140513          	addi	a0,s0,65
    800018e0:	0cd020ef          	jal	ra,800041ac <pvPortMalloc>
    800018e4:	892a                	mv	s2,a0
    800018e6:	c115                	beqz	a0,8000190a <xStreamBufferGenericCreate+0x74>
    800018e8:	04050a13          	addi	s4,a0,64
    800018ec:	0405                	addi	s0,s0,1
    800018ee:	8622                	mv	a2,s0
    800018f0:	05500593          	li	a1,85
    800018f4:	8552                	mv	a0,s4
    800018f6:	40e150ef          	jal	ra,80016d04 <memset>
    800018fa:	02aa0263          	beq	s4,a0,8000191e <xStreamBufferGenericCreate+0x88>
    800018fe:	30047073          	csrci	mstatus,8
    80001902:	9002                	ebreak
    80001904:	a001                	j	80001904 <xStreamBufferGenericCreate+0x6e>
    80001906:	4985                	li	s3,1
    80001908:	bf4d                	j	800018ba <xStreamBufferGenericCreate+0x24>
    8000190a:	4901                	li	s2,0
    8000190c:	70a2                	ld	ra,40(sp)
    8000190e:	7402                	ld	s0,32(sp)
    80001910:	64e2                	ld	s1,24(sp)
    80001912:	69a2                	ld	s3,8(sp)
    80001914:	6a02                	ld	s4,0(sp)
    80001916:	854a                	mv	a0,s2
    80001918:	6942                	ld	s2,16(sp)
    8000191a:	6145                	addi	sp,sp,48
    8000191c:	8082                	ret
    8000191e:	4581                	li	a1,0
    80001920:	04000613          	li	a2,64
    80001924:	854a                	mv	a0,s2
    80001926:	3de150ef          	jal	ra,80016d04 <memset>
    8000192a:	03493823          	sd	s4,48(s2)
    8000192e:	00893823          	sd	s0,16(s2)
    80001932:	85a6                	mv	a1,s1
    80001934:	e091                	bnez	s1,80001938 <xStreamBufferGenericCreate+0xa2>
    80001936:	4585                	li	a1,1
    80001938:	00b93c23          	sd	a1,24(s2)
    8000193c:	03390c23          	sb	s3,56(s2)
    80001940:	b7f1                	j	8000190c <xStreamBufferGenericCreate+0x76>

0000000080001942 <vStreamBufferDelete>:
    80001942:	cd01                	beqz	a0,8000195a <vStreamBufferDelete+0x18>
    80001944:	03854783          	lbu	a5,56(a0)
    80001948:	8b89                	andi	a5,a5,2
    8000194a:	e399                	bnez	a5,80001950 <vStreamBufferDelete+0xe>
    8000194c:	1f90206f          	j	80004344 <vPortFree>
    80001950:	04000613          	li	a2,64
    80001954:	4581                	li	a1,0
    80001956:	3ae1506f          	j	80016d04 <memset>
    8000195a:	30047073          	csrci	mstatus,8
    8000195e:	9002                	ebreak
    80001960:	a001                	j	80001960 <vStreamBufferDelete+0x1e>

0000000080001962 <xStreamBufferReset>:
    80001962:	c925                	beqz	a0,800019d2 <xStreamBufferReset+0x70>
    80001964:	7139                	addi	sp,sp,-64
    80001966:	f822                	sd	s0,48(sp)
    80001968:	fc06                	sd	ra,56(sp)
    8000196a:	f426                	sd	s1,40(sp)
    8000196c:	f04a                	sd	s2,32(sp)
    8000196e:	ec4e                	sd	s3,24(sp)
    80001970:	e852                	sd	s4,16(sp)
    80001972:	e456                	sd	s5,8(sp)
    80001974:	842a                	mv	s0,a0
    80001976:	30047073          	csrci	mstatus,8
    8000197a:	81018493          	addi	s1,gp,-2032 # 80027d98 <xCriticalNesting>
    8000197e:	609c                	ld	a5,0(s1)
    80001980:	7118                	ld	a4,32(a0)
    80001982:	4501                	li	a0,0
    80001984:	00178693          	addi	a3,a5,1
    80001988:	e094                	sd	a3,0(s1)
    8000198a:	cf11                	beqz	a4,800019a6 <xStreamBufferReset+0x44>
    8000198c:	e09c                	sd	a5,0(s1)
    8000198e:	e399                	bnez	a5,80001994 <xStreamBufferReset+0x32>
    80001990:	30046073          	csrsi	mstatus,8
    80001994:	70e2                	ld	ra,56(sp)
    80001996:	7442                	ld	s0,48(sp)
    80001998:	74a2                	ld	s1,40(sp)
    8000199a:	7902                	ld	s2,32(sp)
    8000199c:	69e2                	ld	s3,24(sp)
    8000199e:	6a42                	ld	s4,16(sp)
    800019a0:	6aa2                	ld	s5,8(sp)
    800019a2:	6121                	addi	sp,sp,64
    800019a4:	8082                	ret
    800019a6:	7418                	ld	a4,40(s0)
    800019a8:	f375                	bnez	a4,8000198c <xStreamBufferReset+0x2a>
    800019aa:	03043903          	ld	s2,48(s0)
    800019ae:	01043983          	ld	s3,16(s0)
    800019b2:	05500593          	li	a1,85
    800019b6:	854a                	mv	a0,s2
    800019b8:	864e                	mv	a2,s3
    800019ba:	01843a83          	ld	s5,24(s0)
    800019be:	03844a03          	lbu	s4,56(s0)
    800019c2:	342150ef          	jal	ra,80016d04 <memset>
    800019c6:	00a90a63          	beq	s2,a0,800019da <xStreamBufferReset+0x78>
    800019ca:	30047073          	csrci	mstatus,8
    800019ce:	9002                	ebreak
    800019d0:	a001                	j	800019d0 <xStreamBufferReset+0x6e>
    800019d2:	30047073          	csrci	mstatus,8
    800019d6:	9002                	ebreak
    800019d8:	a001                	j	800019d8 <xStreamBufferReset+0x76>
    800019da:	04000613          	li	a2,64
    800019de:	4581                	li	a1,0
    800019e0:	8522                	mv	a0,s0
    800019e2:	322150ef          	jal	ra,80016d04 <memset>
    800019e6:	609c                	ld	a5,0(s1)
    800019e8:	03243823          	sd	s2,48(s0)
    800019ec:	01343823          	sd	s3,16(s0)
    800019f0:	01543c23          	sd	s5,24(s0)
    800019f4:	03440c23          	sb	s4,56(s0)
    800019f8:	17fd                	addi	a5,a5,-1
    800019fa:	4505                	li	a0,1
    800019fc:	bf41                	j	8000198c <xStreamBufferReset+0x2a>

00000000800019fe <xStreamBufferSetTriggerLevel>:
    800019fe:	87aa                	mv	a5,a0
    80001a00:	cd19                	beqz	a0,80001a1e <xStreamBufferSetTriggerLevel+0x20>
    80001a02:	c981                	beqz	a1,80001a12 <xStreamBufferSetTriggerLevel+0x14>
    80001a04:	6b98                	ld	a4,16(a5)
    80001a06:	4501                	li	a0,0
    80001a08:	00e5f463          	bgeu	a1,a4,80001a10 <xStreamBufferSetTriggerLevel+0x12>
    80001a0c:	ef8c                	sd	a1,24(a5)
    80001a0e:	4505                	li	a0,1
    80001a10:	8082                	ret
    80001a12:	6b98                	ld	a4,16(a5)
    80001a14:	4585                	li	a1,1
    80001a16:	4501                	li	a0,0
    80001a18:	fee5fce3          	bgeu	a1,a4,80001a10 <xStreamBufferSetTriggerLevel+0x12>
    80001a1c:	bfc5                	j	80001a0c <xStreamBufferSetTriggerLevel+0xe>
    80001a1e:	30047073          	csrci	mstatus,8
    80001a22:	9002                	ebreak
    80001a24:	a001                	j	80001a24 <xStreamBufferSetTriggerLevel+0x26>

0000000080001a26 <xStreamBufferSpacesAvailable>:
    80001a26:	c10d                	beqz	a0,80001a48 <xStreamBufferSpacesAvailable+0x22>
    80001a28:	690c                	ld	a1,16(a0)
    80001a2a:	6118                	ld	a4,0(a0)
    80001a2c:	6110                	ld	a2,0(a0)
    80001a2e:	6514                	ld	a3,8(a0)
    80001a30:	611c                	ld	a5,0(a0)
    80001a32:	fef71ce3          	bne	a4,a5,80001a2a <xStreamBufferSpacesAvailable+0x4>
    80001a36:	fff58513          	addi	a0,a1,-1 # 1ffffff <__stack_size+0x1fffed3>
    80001a3a:	962a                	add	a2,a2,a0
    80001a3c:	40d60533          	sub	a0,a2,a3
    80001a40:	00b56363          	bltu	a0,a1,80001a46 <xStreamBufferSpacesAvailable+0x20>
    80001a44:	8d0d                	sub	a0,a0,a1
    80001a46:	8082                	ret
    80001a48:	30047073          	csrci	mstatus,8
    80001a4c:	9002                	ebreak
    80001a4e:	a001                	j	80001a4e <xStreamBufferSpacesAvailable+0x28>

0000000080001a50 <xStreamBufferBytesAvailable>:
    80001a50:	c919                	beqz	a0,80001a66 <xStreamBufferBytesAvailable+0x16>
    80001a52:	651c                	ld	a5,8(a0)
    80001a54:	6918                	ld	a4,16(a0)
    80001a56:	6114                	ld	a3,0(a0)
    80001a58:	00f70533          	add	a0,a4,a5
    80001a5c:	8d15                	sub	a0,a0,a3
    80001a5e:	00e56363          	bltu	a0,a4,80001a64 <xStreamBufferBytesAvailable+0x14>
    80001a62:	8d19                	sub	a0,a0,a4
    80001a64:	8082                	ret
    80001a66:	30047073          	csrci	mstatus,8
    80001a6a:	9002                	ebreak
    80001a6c:	a001                	j	80001a6c <xStreamBufferBytesAvailable+0x1c>

0000000080001a6e <xStreamBufferSend>:
    80001a6e:	711d                	addi	sp,sp,-96
    80001a70:	ec86                	sd	ra,88(sp)
    80001a72:	e8a2                	sd	s0,80(sp)
    80001a74:	e4a6                	sd	s1,72(sp)
    80001a76:	e0ca                	sd	s2,64(sp)
    80001a78:	fc4e                	sd	s3,56(sp)
    80001a7a:	f852                	sd	s4,48(sp)
    80001a7c:	f456                	sd	s5,40(sp)
    80001a7e:	e436                	sd	a3,8(sp)
    80001a80:	c1c9                	beqz	a1,80001b02 <xStreamBufferSend+0x94>
    80001a82:	842a                	mv	s0,a0
    80001a84:	c93d                	beqz	a0,80001afa <xStreamBufferSend+0x8c>
    80001a86:	03854703          	lbu	a4,56(a0)
    80001a8a:	8a2e                	mv	s4,a1
    80001a8c:	690c                	ld	a1,16(a0)
    80001a8e:	8b05                	andi	a4,a4,1
    80001a90:	8932                	mv	s2,a2
    80001a92:	fff58793          	addi	a5,a1,-1
    80001a96:	cb35                	beqz	a4,80001b0a <xStreamBufferSend+0x9c>
    80001a98:	00860993          	addi	s3,a2,8 # 19008 <__stack_size+0x18edc>
    80001a9c:	0f367d63          	bgeu	a2,s3,80001b96 <xStreamBufferSend+0x128>
    80001aa0:	0737f863          	bgeu	a5,s3,80001b10 <xStreamBufferSend+0xa2>
    80001aa4:	e402                	sd	zero,8(sp)
    80001aa6:	6014                	ld	a3,0(s0)
    80001aa8:	6010                	ld	a2,0(s0)
    80001aaa:	6404                	ld	s1,8(s0)
    80001aac:	6018                	ld	a4,0(s0)
    80001aae:	fee69ce3          	bne	a3,a4,80001aa6 <xStreamBufferSend+0x38>
    80001ab2:	97b2                	add	a5,a5,a2
    80001ab4:	409784b3          	sub	s1,a5,s1
    80001ab8:	00b4e363          	bltu	s1,a1,80001abe <xStreamBufferSend+0x50>
    80001abc:	8c8d                	sub	s1,s1,a1
    80001abe:	86a6                	mv	a3,s1
    80001ac0:	874e                	mv	a4,s3
    80001ac2:	864a                	mv	a2,s2
    80001ac4:	85d2                	mv	a1,s4
    80001ac6:	8522                	mv	a0,s0
    80001ac8:	c79ff0ef          	jal	ra,80001740 <prvWriteMessageToBuffer>
    80001acc:	84aa                	mv	s1,a0
    80001ace:	cd01                	beqz	a0,80001ae6 <xStreamBufferSend+0x78>
    80001ad0:	641c                	ld	a5,8(s0)
    80001ad2:	6818                	ld	a4,16(s0)
    80001ad4:	6014                	ld	a3,0(s0)
    80001ad6:	97ba                	add	a5,a5,a4
    80001ad8:	8f95                	sub	a5,a5,a3
    80001ada:	00e7e363          	bltu	a5,a4,80001ae0 <xStreamBufferSend+0x72>
    80001ade:	8f99                	sub	a5,a5,a4
    80001ae0:	6c18                	ld	a4,24(s0)
    80001ae2:	0ce7f263          	bgeu	a5,a4,80001ba6 <xStreamBufferSend+0x138>
    80001ae6:	60e6                	ld	ra,88(sp)
    80001ae8:	6446                	ld	s0,80(sp)
    80001aea:	6906                	ld	s2,64(sp)
    80001aec:	79e2                	ld	s3,56(sp)
    80001aee:	7a42                	ld	s4,48(sp)
    80001af0:	7aa2                	ld	s5,40(sp)
    80001af2:	8526                	mv	a0,s1
    80001af4:	64a6                	ld	s1,72(sp)
    80001af6:	6125                	addi	sp,sp,96
    80001af8:	8082                	ret
    80001afa:	30047073          	csrci	mstatus,8
    80001afe:	9002                	ebreak
    80001b00:	a001                	j	80001b00 <xStreamBufferSend+0x92>
    80001b02:	30047073          	csrci	mstatus,8
    80001b06:	9002                	ebreak
    80001b08:	a001                	j	80001b08 <xStreamBufferSend+0x9a>
    80001b0a:	89b2                	mv	s3,a2
    80001b0c:	08c7e963          	bltu	a5,a2,80001b9e <xStreamBufferSend+0x130>
    80001b10:	6722                	ld	a4,8(sp)
    80001b12:	db51                	beqz	a4,80001aa6 <xStreamBufferSend+0x38>
    80001b14:	0808                	addi	a0,sp,16
    80001b16:	77a010ef          	jal	ra,80003290 <vTaskSetTimeOutState>
    80001b1a:	81018a93          	addi	s5,gp,-2032 # 80027d98 <xCriticalNesting>
    80001b1e:	30047073          	csrci	mstatus,8
    80001b22:	000ab583          	ld	a1,0(s5) # 2000000 <__stack_size+0x1fffed4>
    80001b26:	00158793          	addi	a5,a1,1
    80001b2a:	00fab023          	sd	a5,0(s5)
    80001b2e:	6018                	ld	a4,0(s0)
    80001b30:	6010                	ld	a2,0(s0)
    80001b32:	6414                	ld	a3,8(s0)
    80001b34:	601c                	ld	a5,0(s0)
    80001b36:	fef71ce3          	bne	a4,a5,80001b2e <xStreamBufferSend+0xc0>
    80001b3a:	681c                	ld	a5,16(s0)
    80001b3c:	fff78493          	addi	s1,a5,-1
    80001b40:	94b2                	add	s1,s1,a2
    80001b42:	8c95                	sub	s1,s1,a3
    80001b44:	00f4e363          	bltu	s1,a5,80001b4a <xStreamBufferSend+0xdc>
    80001b48:	8c9d                	sub	s1,s1,a5
    80001b4a:	0734fe63          	bgeu	s1,s3,80001bc6 <xStreamBufferSend+0x158>
    80001b4e:	4581                	li	a1,0
    80001b50:	4501                	li	a0,0
    80001b52:	7e3010ef          	jal	ra,80003b34 <xTaskGenericNotifyStateClear>
    80001b56:	741c                	ld	a5,40(s0)
    80001b58:	efad                	bnez	a5,80001bd2 <xStreamBufferSend+0x164>
    80001b5a:	01f010ef          	jal	ra,80003378 <xTaskGetCurrentTaskHandle>
    80001b5e:	000ab783          	ld	a5,0(s5)
    80001b62:	f408                	sd	a0,40(s0)
    80001b64:	17fd                	addi	a5,a5,-1
    80001b66:	00fab023          	sd	a5,0(s5)
    80001b6a:	e399                	bnez	a5,80001b70 <xStreamBufferSend+0x102>
    80001b6c:	30046073          	csrsi	mstatus,8
    80001b70:	6722                	ld	a4,8(sp)
    80001b72:	4581                	li	a1,0
    80001b74:	4681                	li	a3,0
    80001b76:	4601                	li	a2,0
    80001b78:	4501                	li	a0,0
    80001b7a:	341010ef          	jal	ra,800036ba <xTaskGenericNotifyWait>
    80001b7e:	002c                	addi	a1,sp,8
    80001b80:	02043423          	sd	zero,40(s0)
    80001b84:	0808                	addi	a0,sp,16
    80001b86:	74a010ef          	jal	ra,800032d0 <xTaskCheckForTimeOut>
    80001b8a:	d951                	beqz	a0,80001b1e <xStreamBufferSend+0xb0>
    80001b8c:	f88d                	bnez	s1,80001abe <xStreamBufferSend+0x50>
    80001b8e:	680c                	ld	a1,16(s0)
    80001b90:	fff58793          	addi	a5,a1,-1
    80001b94:	bf09                	j	80001aa6 <xStreamBufferSend+0x38>
    80001b96:	30047073          	csrci	mstatus,8
    80001b9a:	9002                	ebreak
    80001b9c:	a001                	j	80001b9c <xStreamBufferSend+0x12e>
    80001b9e:	6722                	ld	a4,8(sp)
    80001ba0:	89be                	mv	s3,a5
    80001ba2:	fb2d                	bnez	a4,80001b14 <xStreamBufferSend+0xa6>
    80001ba4:	b709                	j	80001aa6 <xStreamBufferSend+0x38>
    80001ba6:	1c2010ef          	jal	ra,80002d68 <vTaskSuspendAll>
    80001baa:	701c                	ld	a5,32(s0)
    80001bac:	cb91                	beqz	a5,80001bc0 <xStreamBufferSend+0x152>
    80001bae:	7008                	ld	a0,32(s0)
    80001bb0:	4701                	li	a4,0
    80001bb2:	4681                	li	a3,0
    80001bb4:	4601                	li	a2,0
    80001bb6:	4581                	li	a1,0
    80001bb8:	417010ef          	jal	ra,800037ce <xTaskGenericNotify>
    80001bbc:	02043023          	sd	zero,32(s0)
    80001bc0:	1b4010ef          	jal	ra,80002d74 <xTaskResumeAll>
    80001bc4:	b70d                	j	80001ae6 <xStreamBufferSend+0x78>
    80001bc6:	00bab023          	sd	a1,0(s5)
    80001bca:	f1e9                	bnez	a1,80001b8c <xStreamBufferSend+0x11e>
    80001bcc:	30046073          	csrsi	mstatus,8
    80001bd0:	bf75                	j	80001b8c <xStreamBufferSend+0x11e>
    80001bd2:	30047073          	csrci	mstatus,8
    80001bd6:	9002                	ebreak
    80001bd8:	a001                	j	80001bd8 <xStreamBufferSend+0x16a>

0000000080001bda <xStreamBufferSendFromISR>:
    80001bda:	c9c9                	beqz	a1,80001c6c <xStreamBufferSendFromISR+0x92>
    80001bdc:	1101                	addi	sp,sp,-32
    80001bde:	e822                	sd	s0,16(sp)
    80001be0:	ec06                	sd	ra,24(sp)
    80001be2:	e426                	sd	s1,8(sp)
    80001be4:	e04a                	sd	s2,0(sp)
    80001be6:	842a                	mv	s0,a0
    80001be8:	cd35                	beqz	a0,80001c64 <xStreamBufferSendFromISR+0x8a>
    80001bea:	03854783          	lbu	a5,56(a0)
    80001bee:	84b6                	mv	s1,a3
    80001bf0:	8732                	mv	a4,a2
    80001bf2:	8b85                	andi	a5,a5,1
    80001bf4:	c399                	beqz	a5,80001bfa <xStreamBufferSendFromISR+0x20>
    80001bf6:	00860713          	addi	a4,a2,8
    80001bfa:	00043803          	ld	a6,0(s0)
    80001bfe:	00043303          	ld	t1,0(s0)
    80001c02:	00843883          	ld	a7,8(s0)
    80001c06:	6008                	ld	a0,0(s0)
    80001c08:	fea819e3          	bne	a6,a0,80001bfa <xStreamBufferSendFromISR+0x20>
    80001c0c:	681c                	ld	a5,16(s0)
    80001c0e:	fff78513          	addi	a0,a5,-1
    80001c12:	932a                	add	t1,t1,a0
    80001c14:	411306b3          	sub	a3,t1,a7
    80001c18:	00f6e363          	bltu	a3,a5,80001c1e <xStreamBufferSendFromISR+0x44>
    80001c1c:	8e9d                	sub	a3,a3,a5
    80001c1e:	8522                	mv	a0,s0
    80001c20:	b21ff0ef          	jal	ra,80001740 <prvWriteMessageToBuffer>
    80001c24:	892a                	mv	s2,a0
    80001c26:	c905                	beqz	a0,80001c56 <xStreamBufferSendFromISR+0x7c>
    80001c28:	641c                	ld	a5,8(s0)
    80001c2a:	6818                	ld	a4,16(s0)
    80001c2c:	6014                	ld	a3,0(s0)
    80001c2e:	97ba                	add	a5,a5,a4
    80001c30:	8f95                	sub	a5,a5,a3
    80001c32:	00e7e363          	bltu	a5,a4,80001c38 <xStreamBufferSendFromISR+0x5e>
    80001c36:	8f99                	sub	a5,a5,a4
    80001c38:	6c18                	ld	a4,24(s0)
    80001c3a:	00e7ee63          	bltu	a5,a4,80001c56 <xStreamBufferSendFromISR+0x7c>
    80001c3e:	701c                	ld	a5,32(s0)
    80001c40:	cb99                	beqz	a5,80001c56 <xStreamBufferSendFromISR+0x7c>
    80001c42:	7008                	ld	a0,32(s0)
    80001c44:	87a6                	mv	a5,s1
    80001c46:	4701                	li	a4,0
    80001c48:	4681                	li	a3,0
    80001c4a:	4601                	li	a2,0
    80001c4c:	4581                	li	a1,0
    80001c4e:	4a7010ef          	jal	ra,800038f4 <xTaskGenericNotifyFromISR>
    80001c52:	02043023          	sd	zero,32(s0)
    80001c56:	60e2                	ld	ra,24(sp)
    80001c58:	6442                	ld	s0,16(sp)
    80001c5a:	64a2                	ld	s1,8(sp)
    80001c5c:	854a                	mv	a0,s2
    80001c5e:	6902                	ld	s2,0(sp)
    80001c60:	6105                	addi	sp,sp,32
    80001c62:	8082                	ret
    80001c64:	30047073          	csrci	mstatus,8
    80001c68:	9002                	ebreak
    80001c6a:	a001                	j	80001c6a <xStreamBufferSendFromISR+0x90>
    80001c6c:	30047073          	csrci	mstatus,8
    80001c70:	9002                	ebreak
    80001c72:	a001                	j	80001c72 <xStreamBufferSendFromISR+0x98>

0000000080001c74 <xStreamBufferReceive>:
    80001c74:	c1c5                	beqz	a1,80001d14 <xStreamBufferReceive+0xa0>
    80001c76:	715d                	addi	sp,sp,-80
    80001c78:	e0a2                	sd	s0,64(sp)
    80001c7a:	e486                	sd	ra,72(sp)
    80001c7c:	fc26                	sd	s1,56(sp)
    80001c7e:	f84a                	sd	s2,48(sp)
    80001c80:	f44e                	sd	s3,40(sp)
    80001c82:	f052                	sd	s4,32(sp)
    80001c84:	ec56                	sd	s5,24(sp)
    80001c86:	842a                	mv	s0,a0
    80001c88:	c151                	beqz	a0,80001d0c <xStreamBufferReceive+0x98>
    80001c8a:	03854983          	lbu	s3,56(a0)
    80001c8e:	892e                	mv	s2,a1
    80001c90:	8a32                	mv	s4,a2
    80001c92:	0019f993          	andi	s3,s3,1
    80001c96:	098e                	slli	s3,s3,0x3
    80001c98:	c6a9                	beqz	a3,80001ce2 <xStreamBufferReceive+0x6e>
    80001c9a:	30047073          	csrci	mstatus,8
    80001c9e:	81018a93          	addi	s5,gp,-2032 # 80027d98 <xCriticalNesting>
    80001ca2:	000ab703          	ld	a4,0(s5)
    80001ca6:	6504                	ld	s1,8(a0)
    80001ca8:	691c                	ld	a5,16(a0)
    80001caa:	00170613          	addi	a2,a4,1
    80001cae:	00cab023          	sd	a2,0(s5)
    80001cb2:	6110                	ld	a2,0(a0)
    80001cb4:	94be                	add	s1,s1,a5
    80001cb6:	8c91                	sub	s1,s1,a2
    80001cb8:	00f4e363          	bltu	s1,a5,80001cbe <xStreamBufferReceive+0x4a>
    80001cbc:	8c9d                	sub	s1,s1,a5
    80001cbe:	0499ff63          	bgeu	s3,s1,80001d1c <xStreamBufferReceive+0xa8>
    80001cc2:	00eab023          	sd	a4,0(s5)
    80001cc6:	e73d                	bnez	a4,80001d34 <xStreamBufferReceive+0xc0>
    80001cc8:	30046073          	csrsi	mstatus,8
    80001ccc:	0699e463          	bltu	s3,s1,80001d34 <xStreamBufferReceive+0xc0>
    80001cd0:	8736                	mv	a4,a3
    80001cd2:	4601                	li	a2,0
    80001cd4:	4681                	li	a3,0
    80001cd6:	4581                	li	a1,0
    80001cd8:	4501                	li	a0,0
    80001cda:	1e1010ef          	jal	ra,800036ba <xTaskGenericNotifyWait>
    80001cde:	02043023          	sd	zero,32(s0)
    80001ce2:	6404                	ld	s1,8(s0)
    80001ce4:	681c                	ld	a5,16(s0)
    80001ce6:	6018                	ld	a4,0(s0)
    80001ce8:	94be                	add	s1,s1,a5
    80001cea:	8c99                	sub	s1,s1,a4
    80001cec:	00f4e363          	bltu	s1,a5,80001cf2 <xStreamBufferReceive+0x7e>
    80001cf0:	8c9d                	sub	s1,s1,a5
    80001cf2:	0499e163          	bltu	s3,s1,80001d34 <xStreamBufferReceive+0xc0>
    80001cf6:	4481                	li	s1,0
    80001cf8:	60a6                	ld	ra,72(sp)
    80001cfa:	6406                	ld	s0,64(sp)
    80001cfc:	7942                	ld	s2,48(sp)
    80001cfe:	79a2                	ld	s3,40(sp)
    80001d00:	7a02                	ld	s4,32(sp)
    80001d02:	6ae2                	ld	s5,24(sp)
    80001d04:	8526                	mv	a0,s1
    80001d06:	74e2                	ld	s1,56(sp)
    80001d08:	6161                	addi	sp,sp,80
    80001d0a:	8082                	ret
    80001d0c:	30047073          	csrci	mstatus,8
    80001d10:	9002                	ebreak
    80001d12:	a001                	j	80001d12 <xStreamBufferReceive+0x9e>
    80001d14:	30047073          	csrci	mstatus,8
    80001d18:	9002                	ebreak
    80001d1a:	a001                	j	80001d1a <xStreamBufferReceive+0xa6>
    80001d1c:	4581                	li	a1,0
    80001d1e:	4501                	li	a0,0
    80001d20:	e436                	sd	a3,8(sp)
    80001d22:	613010ef          	jal	ra,80003b34 <xTaskGenericNotifyStateClear>
    80001d26:	701c                	ld	a5,32(s0)
    80001d28:	66a2                	ld	a3,8(sp)
    80001d2a:	cf8d                	beqz	a5,80001d64 <xStreamBufferReceive+0xf0>
    80001d2c:	30047073          	csrci	mstatus,8
    80001d30:	9002                	ebreak
    80001d32:	a001                	j	80001d32 <xStreamBufferReceive+0xbe>
    80001d34:	86a6                	mv	a3,s1
    80001d36:	8652                	mv	a2,s4
    80001d38:	85ca                	mv	a1,s2
    80001d3a:	8522                	mv	a0,s0
    80001d3c:	aefff0ef          	jal	ra,8000182a <prvReadMessageFromBuffer>
    80001d40:	84aa                	mv	s1,a0
    80001d42:	d955                	beqz	a0,80001cf6 <xStreamBufferReceive+0x82>
    80001d44:	024010ef          	jal	ra,80002d68 <vTaskSuspendAll>
    80001d48:	741c                	ld	a5,40(s0)
    80001d4a:	cb91                	beqz	a5,80001d5e <xStreamBufferReceive+0xea>
    80001d4c:	7408                	ld	a0,40(s0)
    80001d4e:	4701                	li	a4,0
    80001d50:	4681                	li	a3,0
    80001d52:	4601                	li	a2,0
    80001d54:	4581                	li	a1,0
    80001d56:	279010ef          	jal	ra,800037ce <xTaskGenericNotify>
    80001d5a:	02043423          	sd	zero,40(s0)
    80001d5e:	016010ef          	jal	ra,80002d74 <xTaskResumeAll>
    80001d62:	bf59                	j	80001cf8 <xStreamBufferReceive+0x84>
    80001d64:	e436                	sd	a3,8(sp)
    80001d66:	612010ef          	jal	ra,80003378 <xTaskGetCurrentTaskHandle>
    80001d6a:	000ab783          	ld	a5,0(s5)
    80001d6e:	f008                	sd	a0,32(s0)
    80001d70:	66a2                	ld	a3,8(sp)
    80001d72:	17fd                	addi	a5,a5,-1
    80001d74:	00fab023          	sd	a5,0(s5)
    80001d78:	dba1                	beqz	a5,80001cc8 <xStreamBufferReceive+0x54>
    80001d7a:	bf99                	j	80001cd0 <xStreamBufferReceive+0x5c>

0000000080001d7c <xStreamBufferNextMessageLengthBytes>:
    80001d7c:	c905                	beqz	a0,80001dac <xStreamBufferNextMessageLengthBytes+0x30>
    80001d7e:	03854703          	lbu	a4,56(a0)
    80001d82:	87aa                	mv	a5,a0
    80001d84:	8b05                	andi	a4,a4,1
    80001d86:	c305                	beqz	a4,80001da6 <xStreamBufferNextMessageLengthBytes+0x2a>
    80001d88:	6508                	ld	a0,8(a0)
    80001d8a:	6b98                	ld	a4,16(a5)
    80001d8c:	6394                	ld	a3,0(a5)
    80001d8e:	953a                	add	a0,a0,a4
    80001d90:	8d15                	sub	a0,a0,a3
    80001d92:	02e57163          	bgeu	a0,a4,80001db4 <xStreamBufferNextMessageLengthBytes+0x38>
    80001d96:	4721                	li	a4,8
    80001d98:	02a76263          	bltu	a4,a0,80001dbc <xStreamBufferNextMessageLengthBytes+0x40>
    80001d9c:	c519                	beqz	a0,80001daa <xStreamBufferNextMessageLengthBytes+0x2e>
    80001d9e:	30047073          	csrci	mstatus,8
    80001da2:	9002                	ebreak
    80001da4:	a001                	j	80001da4 <xStreamBufferNextMessageLengthBytes+0x28>
    80001da6:	4501                	li	a0,0
    80001da8:	8082                	ret
    80001daa:	8082                	ret
    80001dac:	30047073          	csrci	mstatus,8
    80001db0:	9002                	ebreak
    80001db2:	a001                	j	80001db2 <xStreamBufferNextMessageLengthBytes+0x36>
    80001db4:	8d19                	sub	a0,a0,a4
    80001db6:	4721                	li	a4,8
    80001db8:	fea772e3          	bgeu	a4,a0,80001d9c <xStreamBufferNextMessageLengthBytes+0x20>
    80001dbc:	1101                	addi	sp,sp,-32
    80001dbe:	ec06                	sd	ra,24(sp)
    80001dc0:	6394                	ld	a3,0(a5)
    80001dc2:	002c                	addi	a1,sp,8
    80001dc4:	4621                	li	a2,8
    80001dc6:	853e                	mv	a0,a5
    80001dc8:	9e9ff0ef          	jal	ra,800017b0 <prvReadBytesFromBuffer.part.0>
    80001dcc:	60e2                	ld	ra,24(sp)
    80001dce:	6522                	ld	a0,8(sp)
    80001dd0:	6105                	addi	sp,sp,32
    80001dd2:	8082                	ret

0000000080001dd4 <xStreamBufferReceiveFromISR>:
    80001dd4:	c5a1                	beqz	a1,80001e1c <xStreamBufferReceiveFromISR+0x48>
    80001dd6:	1101                	addi	sp,sp,-32
    80001dd8:	e822                	sd	s0,16(sp)
    80001dda:	ec06                	sd	ra,24(sp)
    80001ddc:	e426                	sd	s1,8(sp)
    80001dde:	e04a                	sd	s2,0(sp)
    80001de0:	842a                	mv	s0,a0
    80001de2:	c90d                	beqz	a0,80001e14 <xStreamBufferReceiveFromISR+0x40>
    80001de4:	6518                	ld	a4,8(a0)
    80001de6:	6908                	ld	a0,16(a0)
    80001de8:	03844783          	lbu	a5,56(s0)
    80001dec:	84b6                	mv	s1,a3
    80001dee:	6014                	ld	a3,0(s0)
    80001df0:	972a                	add	a4,a4,a0
    80001df2:	8b85                	andi	a5,a5,1
    80001df4:	40d706b3          	sub	a3,a4,a3
    80001df8:	078e                	slli	a5,a5,0x3
    80001dfa:	00a6e363          	bltu	a3,a0,80001e00 <xStreamBufferReceiveFromISR+0x2c>
    80001dfe:	8e89                	sub	a3,a3,a0
    80001e00:	02d7e263          	bltu	a5,a3,80001e24 <xStreamBufferReceiveFromISR+0x50>
    80001e04:	4901                	li	s2,0
    80001e06:	60e2                	ld	ra,24(sp)
    80001e08:	6442                	ld	s0,16(sp)
    80001e0a:	64a2                	ld	s1,8(sp)
    80001e0c:	854a                	mv	a0,s2
    80001e0e:	6902                	ld	s2,0(sp)
    80001e10:	6105                	addi	sp,sp,32
    80001e12:	8082                	ret
    80001e14:	30047073          	csrci	mstatus,8
    80001e18:	9002                	ebreak
    80001e1a:	a001                	j	80001e1a <xStreamBufferReceiveFromISR+0x46>
    80001e1c:	30047073          	csrci	mstatus,8
    80001e20:	9002                	ebreak
    80001e22:	a001                	j	80001e22 <xStreamBufferReceiveFromISR+0x4e>
    80001e24:	8522                	mv	a0,s0
    80001e26:	a05ff0ef          	jal	ra,8000182a <prvReadMessageFromBuffer>
    80001e2a:	892a                	mv	s2,a0
    80001e2c:	dd61                	beqz	a0,80001e04 <xStreamBufferReceiveFromISR+0x30>
    80001e2e:	741c                	ld	a5,40(s0)
    80001e30:	dbf9                	beqz	a5,80001e06 <xStreamBufferReceiveFromISR+0x32>
    80001e32:	7408                	ld	a0,40(s0)
    80001e34:	87a6                	mv	a5,s1
    80001e36:	4701                	li	a4,0
    80001e38:	4681                	li	a3,0
    80001e3a:	4601                	li	a2,0
    80001e3c:	4581                	li	a1,0
    80001e3e:	2b7010ef          	jal	ra,800038f4 <xTaskGenericNotifyFromISR>
    80001e42:	02043423          	sd	zero,40(s0)
    80001e46:	b7c1                	j	80001e06 <xStreamBufferReceiveFromISR+0x32>

0000000080001e48 <xStreamBufferIsEmpty>:
    80001e48:	c519                	beqz	a0,80001e56 <xStreamBufferIsEmpty+0xe>
    80001e4a:	611c                	ld	a5,0(a0)
    80001e4c:	6508                	ld	a0,8(a0)
    80001e4e:	8d1d                	sub	a0,a0,a5
    80001e50:	00153513          	seqz	a0,a0
    80001e54:	8082                	ret
    80001e56:	30047073          	csrci	mstatus,8
    80001e5a:	9002                	ebreak
    80001e5c:	a001                	j	80001e5c <xStreamBufferIsEmpty+0x14>

0000000080001e5e <xStreamBufferIsFull>:
    80001e5e:	c90d                	beqz	a0,80001e90 <xStreamBufferIsFull+0x32>
    80001e60:	03854683          	lbu	a3,56(a0)
    80001e64:	8a85                	andi	a3,a3,1
    80001e66:	068e                	slli	a3,a3,0x3
    80001e68:	6118                	ld	a4,0(a0)
    80001e6a:	610c                	ld	a1,0(a0)
    80001e6c:	6510                	ld	a2,8(a0)
    80001e6e:	611c                	ld	a5,0(a0)
    80001e70:	fef71ce3          	bne	a4,a5,80001e68 <xStreamBufferIsFull+0xa>
    80001e74:	691c                	ld	a5,16(a0)
    80001e76:	fff78513          	addi	a0,a5,-1
    80001e7a:	952e                	add	a0,a0,a1
    80001e7c:	8d11                	sub	a0,a0,a2
    80001e7e:	00f56363          	bltu	a0,a5,80001e84 <xStreamBufferIsFull+0x26>
    80001e82:	8d1d                	sub	a0,a0,a5
    80001e84:	00a6b6b3          	sltu	a3,a3,a0
    80001e88:	0016c513          	xori	a0,a3,1
    80001e8c:	8905                	andi	a0,a0,1
    80001e8e:	8082                	ret
    80001e90:	30047073          	csrci	mstatus,8
    80001e94:	9002                	ebreak
    80001e96:	a001                	j	80001e96 <xStreamBufferIsFull+0x38>

0000000080001e98 <xStreamBufferSendCompletedFromISR>:
    80001e98:	c51d                	beqz	a0,80001ec6 <xStreamBufferSendCompletedFromISR+0x2e>
    80001e9a:	1141                	addi	sp,sp,-16
    80001e9c:	e022                	sd	s0,0(sp)
    80001e9e:	e406                	sd	ra,8(sp)
    80001ea0:	711c                	ld	a5,32(a0)
    80001ea2:	842a                	mv	s0,a0
    80001ea4:	4501                	li	a0,0
    80001ea6:	cf81                	beqz	a5,80001ebe <xStreamBufferSendCompletedFromISR+0x26>
    80001ea8:	7008                	ld	a0,32(s0)
    80001eaa:	87ae                	mv	a5,a1
    80001eac:	4701                	li	a4,0
    80001eae:	4681                	li	a3,0
    80001eb0:	4601                	li	a2,0
    80001eb2:	4581                	li	a1,0
    80001eb4:	241010ef          	jal	ra,800038f4 <xTaskGenericNotifyFromISR>
    80001eb8:	4505                	li	a0,1
    80001eba:	02043023          	sd	zero,32(s0)
    80001ebe:	60a2                	ld	ra,8(sp)
    80001ec0:	6402                	ld	s0,0(sp)
    80001ec2:	0141                	addi	sp,sp,16
    80001ec4:	8082                	ret
    80001ec6:	30047073          	csrci	mstatus,8
    80001eca:	9002                	ebreak
    80001ecc:	a001                	j	80001ecc <xStreamBufferSendCompletedFromISR+0x34>

0000000080001ece <xStreamBufferReceiveCompletedFromISR>:
    80001ece:	c51d                	beqz	a0,80001efc <xStreamBufferReceiveCompletedFromISR+0x2e>
    80001ed0:	1141                	addi	sp,sp,-16
    80001ed2:	e022                	sd	s0,0(sp)
    80001ed4:	e406                	sd	ra,8(sp)
    80001ed6:	751c                	ld	a5,40(a0)
    80001ed8:	842a                	mv	s0,a0
    80001eda:	4501                	li	a0,0
    80001edc:	cf81                	beqz	a5,80001ef4 <xStreamBufferReceiveCompletedFromISR+0x26>
    80001ede:	7408                	ld	a0,40(s0)
    80001ee0:	87ae                	mv	a5,a1
    80001ee2:	4701                	li	a4,0
    80001ee4:	4681                	li	a3,0
    80001ee6:	4601                	li	a2,0
    80001ee8:	4581                	li	a1,0
    80001eea:	20b010ef          	jal	ra,800038f4 <xTaskGenericNotifyFromISR>
    80001eee:	4505                	li	a0,1
    80001ef0:	02043423          	sd	zero,40(s0)
    80001ef4:	60a2                	ld	ra,8(sp)
    80001ef6:	6402                	ld	s0,0(sp)
    80001ef8:	0141                	addi	sp,sp,16
    80001efa:	8082                	ret
    80001efc:	30047073          	csrci	mstatus,8
    80001f00:	9002                	ebreak
    80001f02:	a001                	j	80001f02 <xStreamBufferReceiveCompletedFromISR+0x34>

0000000080001f04 <prvSearchForNameWithinSingleList>:
    80001f04:	611c                	ld	a5,0(a0)
    80001f06:	832a                	mv	t1,a0
    80001f08:	c7b1                	beqz	a5,80001f54 <prvSearchForNameWithinSingleList+0x50>
    80001f0a:	651c                	ld	a5,8(a0)
    80001f0c:	01050e13          	addi	t3,a0,16
    80001f10:	0087b883          	ld	a7,8(a5)
    80001f14:	01153423          	sd	a7,8(a0)
    80001f18:	05c88663          	beq	a7,t3,80001f64 <prvSearchForNameWithinSingleList+0x60>
    80001f1c:	0188be83          	ld	t4,24(a7)
    80001f20:	0088b883          	ld	a7,8(a7)
    80001f24:	01133423          	sd	a7,8(t1)
    80001f28:	031e0863          	beq	t3,a7,80001f58 <prvSearchForNameWithinSingleList+0x54>
    80001f2c:	0188b503          	ld	a0,24(a7)
    80001f30:	872e                	mv	a4,a1
    80001f32:	06850793          	addi	a5,a0,104
    80001f36:	07850813          	addi	a6,a0,120
    80001f3a:	00074683          	lbu	a3,0(a4)
    80001f3e:	0007c603          	lbu	a2,0(a5)
    80001f42:	0705                	addi	a4,a4,1
    80001f44:	0785                	addi	a5,a5,1
    80001f46:	00c69563          	bne	a3,a2,80001f50 <prvSearchForNameWithinSingleList+0x4c>
    80001f4a:	ce81                	beqz	a3,80001f62 <prvSearchForNameWithinSingleList+0x5e>
    80001f4c:	ff0797e3          	bne	a5,a6,80001f3a <prvSearchForNameWithinSingleList+0x36>
    80001f50:	fcae98e3          	bne	t4,a0,80001f20 <prvSearchForNameWithinSingleList+0x1c>
    80001f54:	4501                	li	a0,0
    80001f56:	8082                	ret
    80001f58:	01833883          	ld	a7,24(t1)
    80001f5c:	01133423          	sd	a7,8(t1)
    80001f60:	b7f1                	j	80001f2c <prvSearchForNameWithinSingleList+0x28>
    80001f62:	8082                	ret
    80001f64:	01853883          	ld	a7,24(a0)
    80001f68:	01153423          	sd	a7,8(a0)
    80001f6c:	bf45                	j	80001f1c <prvSearchForNameWithinSingleList+0x18>

0000000080001f6e <prvAddCurrentTaskToDelayedList>:
    80001f6e:	7179                	addi	sp,sp,-48
    80001f70:	ec26                	sd	s1,24(sp)
    80001f72:	a1818493          	addi	s1,gp,-1512 # 80027fa0 <pxCurrentTCB>
    80001f76:	e44e                	sd	s3,8(sp)
    80001f78:	9f01b983          	ld	s3,-1552(gp) # 80027f78 <xTickCount>
    80001f7c:	6098                	ld	a4,0(s1)
    80001f7e:	609c                	ld	a5,0(s1)
    80001f80:	f022                	sd	s0,32(sp)
    80001f82:	e84a                	sd	s2,16(sp)
    80001f84:	f406                	sd	ra,40(sp)
    80001f86:	842a                	mv	s0,a0
    80001f88:	080706a3          	sb	zero,141(a4)
    80001f8c:	00878513          	addi	a0,a5,8
    80001f90:	892e                	mv	s2,a1
    80001f92:	fa2fe0ef          	jal	ra,80000734 <uxListRemove>
    80001f96:	57fd                	li	a5,-1
    80001f98:	04f40663          	beq	s0,a5,80001fe4 <prvAddCurrentTaskToDelayedList+0x76>
    80001f9c:	609c                	ld	a5,0(s1)
    80001f9e:	944e                	add	s0,s0,s3
    80001fa0:	e780                	sd	s0,8(a5)
    80001fa2:	03346563          	bltu	s0,s3,80001fcc <prvAddCurrentTaskToDelayedList+0x5e>
    80001fa6:	a101b503          	ld	a0,-1520(gp) # 80027f98 <pxDelayedTaskList>
    80001faa:	608c                	ld	a1,0(s1)
    80001fac:	05a1                	addi	a1,a1,8
    80001fae:	f58fe0ef          	jal	ra,80000706 <vListInsert>
    80001fb2:	9b818793          	addi	a5,gp,-1608 # 80027f40 <xNextTaskUnblockTime>
    80001fb6:	6398                	ld	a4,0(a5)
    80001fb8:	00e47363          	bgeu	s0,a4,80001fbe <prvAddCurrentTaskToDelayedList+0x50>
    80001fbc:	e380                	sd	s0,0(a5)
    80001fbe:	70a2                	ld	ra,40(sp)
    80001fc0:	7402                	ld	s0,32(sp)
    80001fc2:	64e2                	ld	s1,24(sp)
    80001fc4:	6942                	ld	s2,16(sp)
    80001fc6:	69a2                	ld	s3,8(sp)
    80001fc8:	6145                	addi	sp,sp,48
    80001fca:	8082                	ret
    80001fcc:	7402                	ld	s0,32(sp)
    80001fce:	a081b503          	ld	a0,-1528(gp) # 80027f90 <pxOverflowDelayedTaskList>
    80001fd2:	608c                	ld	a1,0(s1)
    80001fd4:	70a2                	ld	ra,40(sp)
    80001fd6:	64e2                	ld	s1,24(sp)
    80001fd8:	6942                	ld	s2,16(sp)
    80001fda:	69a2                	ld	s3,8(sp)
    80001fdc:	05a1                	addi	a1,a1,8
    80001fde:	6145                	addi	sp,sp,48
    80001fe0:	f26fe06f          	j	80000706 <vListInsert>
    80001fe4:	fa090ce3          	beqz	s2,80001f9c <prvAddCurrentTaskToDelayedList+0x2e>
    80001fe8:	ef018793          	addi	a5,gp,-272 # 80028478 <xSuspendedTaskList>
    80001fec:	6098                	ld	a4,0(s1)
    80001fee:	6794                	ld	a3,8(a5)
    80001ff0:	0004b883          	ld	a7,0(s1)
    80001ff4:	608c                	ld	a1,0(s1)
    80001ff6:	eb14                	sd	a3,16(a4)
    80001ff8:	6a88                	ld	a0,16(a3)
    80001ffa:	6090                	ld	a2,0(s1)
    80001ffc:	0004b803          	ld	a6,0(s1)
    80002000:	6398                	ld	a4,0(a5)
    80002002:	00a8bc23          	sd	a0,24(a7)
    80002006:	05a1                	addi	a1,a1,8
    80002008:	e50c                	sd	a1,8(a0)
    8000200a:	0621                	addi	a2,a2,8
    8000200c:	ea90                	sd	a2,16(a3)
    8000200e:	0705                	addi	a4,a4,1
    80002010:	02f83423          	sd	a5,40(a6)
    80002014:	e398                	sd	a4,0(a5)
    80002016:	70a2                	ld	ra,40(sp)
    80002018:	7402                	ld	s0,32(sp)
    8000201a:	64e2                	ld	s1,24(sp)
    8000201c:	6942                	ld	s2,16(sp)
    8000201e:	69a2                	ld	s3,8(sp)
    80002020:	6145                	addi	sp,sp,48
    80002022:	8082                	ret

0000000080002024 <vTaskSwitchContext.part.0>:
    80002024:	1141                	addi	sp,sp,-16
    80002026:	e022                	sd	s0,0(sp)
    80002028:	9c01b823          	sd	zero,-1584(gp) # 80027f58 <xYieldPendings>
    8000202c:	a1818413          	addi	s0,gp,-1512 # 80027fa0 <pxCurrentTCB>
    80002030:	6018                	ld	a4,0(s0)
    80002032:	e406                	sd	ra,8(sp)
    80002034:	a5a5a7b7          	lui	a5,0xa5a5a
    80002038:	7338                	ld	a4,96(a4)
    8000203a:	5a578793          	addi	a5,a5,1445 # ffffffffa5a5a5a5 <my_fat_image_end+0xffffffff2085a5a5>
    8000203e:	4314                	lw	a3,0(a4)
    80002040:	00f69563          	bne	a3,a5,8000204a <vTaskSwitchContext.part.0+0x26>
    80002044:	435c                	lw	a5,4(a4)
    80002046:	04d78f63          	beq	a5,a3,800020a4 <vTaskSwitchContext.part.0+0x80>
    8000204a:	6008                	ld	a0,0(s0)
    8000204c:	600c                	ld	a1,0(s0)
    8000204e:	06858593          	addi	a1,a1,104
    80002052:	5aa140ef          	jal	ra,800165fc <vApplicationStackOverflowHook>
    80002056:	9e818593          	addi	a1,gp,-1560 # 80027f70 <uxTopReadyPriority>
    8000205a:	6198                	ld	a4,0(a1)
    8000205c:	ef018613          	addi	a2,gp,-272 # 80028478 <xSuspendedTaskList>
    80002060:	a019                	j	80002066 <vTaskSwitchContext.part.0+0x42>
    80002062:	cf0d                	beqz	a4,8000209c <vTaskSwitchContext.part.0+0x78>
    80002064:	177d                	addi	a4,a4,-1
    80002066:	00271693          	slli	a3,a4,0x2
    8000206a:	00e687b3          	add	a5,a3,a4
    8000206e:	078e                	slli	a5,a5,0x3
    80002070:	97b2                	add	a5,a5,a2
    80002072:	779c                	ld	a5,40(a5)
    80002074:	d7fd                	beqz	a5,80002062 <vTaskSwitchContext.part.0+0x3e>
    80002076:	00e687b3          	add	a5,a3,a4
    8000207a:	078e                	slli	a5,a5,0x3
    8000207c:	963e                	add	a2,a2,a5
    8000207e:	7a14                	ld	a3,48(a2)
    80002080:	f2818513          	addi	a0,gp,-216 # 800284b0 <pxReadyTasksLists+0x10>
    80002084:	97aa                	add	a5,a5,a0
    80002086:	6694                	ld	a3,8(a3)
    80002088:	fa14                	sd	a3,48(a2)
    8000208a:	02f68463          	beq	a3,a5,800020b2 <vTaskSwitchContext.part.0+0x8e>
    8000208e:	6e9c                	ld	a5,24(a3)
    80002090:	e01c                	sd	a5,0(s0)
    80002092:	e198                	sd	a4,0(a1)
    80002094:	60a2                	ld	ra,8(sp)
    80002096:	6402                	ld	s0,0(sp)
    80002098:	0141                	addi	sp,sp,16
    8000209a:	8082                	ret
    8000209c:	30047073          	csrci	mstatus,8
    800020a0:	9002                	ebreak
    800020a2:	a001                	j	800020a2 <vTaskSwitchContext.part.0+0x7e>
    800020a4:	4714                	lw	a3,8(a4)
    800020a6:	faf692e3          	bne	a3,a5,8000204a <vTaskSwitchContext.part.0+0x26>
    800020aa:	475c                	lw	a5,12(a4)
    800020ac:	f8d79fe3          	bne	a5,a3,8000204a <vTaskSwitchContext.part.0+0x26>
    800020b0:	b75d                	j	80002056 <vTaskSwitchContext.part.0+0x32>
    800020b2:	6234                	ld	a3,64(a2)
    800020b4:	fa14                	sd	a3,48(a2)
    800020b6:	6e9c                	ld	a5,24(a3)
    800020b8:	e01c                	sd	a5,0(s0)
    800020ba:	e198                	sd	a4,0(a1)
    800020bc:	60a2                	ld	ra,8(sp)
    800020be:	6402                	ld	s0,0(sp)
    800020c0:	0141                	addi	sp,sp,16
    800020c2:	8082                	ret

00000000800020c4 <prvIdleTask>:
    800020c4:	7179                	addi	sp,sp,-48
    800020c6:	f022                	sd	s0,32(sp)
    800020c8:	e84a                	sd	s2,16(sp)
    800020ca:	e44e                	sd	s3,8(sp)
    800020cc:	e052                	sd	s4,0(sp)
    800020ce:	f406                	sd	ra,40(sp)
    800020d0:	ec26                	sd	s1,24(sp)
    800020d2:	a0018913          	addi	s2,gp,-1536 # 80027f88 <uxDeletedTasksWaitingCleanUp>
    800020d6:	81018413          	addi	s0,gp,-2032 # 80027d98 <xCriticalNesting>
    800020da:	ef018a13          	addi	s4,gp,-272 # 80028478 <xSuspendedTaskList>
    800020de:	9f818993          	addi	s3,gp,-1544 # 80027f80 <uxCurrentNumberOfTasks>
    800020e2:	a099                	j	80002128 <prvIdleTask+0x64>
    800020e4:	30047073          	csrci	mstatus,8
    800020e8:	108a3703          	ld	a4,264(s4)
    800020ec:	601c                	ld	a5,0(s0)
    800020ee:	6f04                	ld	s1,24(a4)
    800020f0:	0785                	addi	a5,a5,1
    800020f2:	e01c                	sd	a5,0(s0)
    800020f4:	00848513          	addi	a0,s1,8
    800020f8:	e3cfe0ef          	jal	ra,80000734 <uxListRemove>
    800020fc:	0009b703          	ld	a4,0(s3)
    80002100:	601c                	ld	a5,0(s0)
    80002102:	177d                	addi	a4,a4,-1
    80002104:	00e9b023          	sd	a4,0(s3)
    80002108:	00093703          	ld	a4,0(s2)
    8000210c:	17fd                	addi	a5,a5,-1
    8000210e:	e01c                	sd	a5,0(s0)
    80002110:	177d                	addi	a4,a4,-1
    80002112:	00e93023          	sd	a4,0(s2)
    80002116:	e399                	bnez	a5,8000211c <prvIdleTask+0x58>
    80002118:	30046073          	csrsi	mstatus,8
    8000211c:	70a8                	ld	a0,96(s1)
    8000211e:	226020ef          	jal	ra,80004344 <vPortFree>
    80002122:	8526                	mv	a0,s1
    80002124:	220020ef          	jal	ra,80004344 <vPortFree>
    80002128:	00093783          	ld	a5,0(s2)
    8000212c:	ffc5                	bnez	a5,800020e4 <prvIdleTask+0x20>
    8000212e:	4cc140ef          	jal	ra,800165fa <vApplicationIdleHook>
    80002132:	bfdd                	j	80002128 <prvIdleTask+0x64>

0000000080002134 <xTaskIncrementTick.part.0>:
    80002134:	9f018793          	addi	a5,gp,-1552 # 80027f78 <xTickCount>
    80002138:	638c                	ld	a1,0(a5)
    8000213a:	9b818f13          	addi	t5,gp,-1608 # 80027f40 <xNextTaskUnblockTime>
    8000213e:	0585                	addi	a1,a1,1
    80002140:	e38c                	sd	a1,0(a5)
    80002142:	ed95                	bnez	a1,8000217e <xTaskIncrementTick.part.0+0x4a>
    80002144:	a1018793          	addi	a5,gp,-1520 # 80027f98 <pxDelayedTaskList>
    80002148:	6398                	ld	a4,0(a5)
    8000214a:	6318                	ld	a4,0(a4)
    8000214c:	c709                	beqz	a4,80002156 <xTaskIncrementTick.part.0+0x22>
    8000214e:	30047073          	csrci	mstatus,8
    80002152:	9002                	ebreak
    80002154:	a001                	j	80002154 <xTaskIncrementTick.part.0+0x20>
    80002156:	a0818713          	addi	a4,gp,-1528 # 80027f90 <pxOverflowDelayedTaskList>
    8000215a:	6390                	ld	a2,0(a5)
    8000215c:	6308                	ld	a0,0(a4)
    8000215e:	9c818693          	addi	a3,gp,-1592 # 80027f50 <xNumOfOverflows>
    80002162:	e388                	sd	a0,0(a5)
    80002164:	e310                	sd	a2,0(a4)
    80002166:	6298                	ld	a4,0(a3)
    80002168:	0705                	addi	a4,a4,1
    8000216a:	e298                	sd	a4,0(a3)
    8000216c:	6398                	ld	a4,0(a5)
    8000216e:	6318                	ld	a4,0(a4)
    80002170:	14071d63          	bnez	a4,800022ca <xTaskIncrementTick.part.0+0x196>
    80002174:	9b818f13          	addi	t5,gp,-1608 # 80027f40 <xNextTaskUnblockTime>
    80002178:	57fd                	li	a5,-1
    8000217a:	00ff3023          	sd	a5,0(t5)
    8000217e:	000f3783          	ld	a5,0(t5)
    80002182:	0ef5e163          	bltu	a1,a5,80002264 <xTaskIncrementTick.part.0+0x130>
    80002186:	a1018893          	addi	a7,gp,-1520 # 80027f98 <pxDelayedTaskList>
    8000218a:	0008b783          	ld	a5,0(a7)
    8000218e:	4501                	li	a0,0
    80002190:	ef018813          	addi	a6,gp,-272 # 80028478 <xSuspendedTaskList>
    80002194:	639c                	ld	a5,0(a5)
    80002196:	a1818e13          	addi	t3,gp,-1512 # 80027fa0 <pxCurrentTCB>
    8000219a:	12078163          	beqz	a5,800022bc <xTaskIncrementTick.part.0+0x188>
    8000219e:	9e818313          	addi	t1,gp,-1560 # 80027f70 <uxTopReadyPriority>
    800021a2:	f1818e93          	addi	t4,gp,-232 # 800284a0 <pxReadyTasksLists>
    800021a6:	a071                	j	80002232 <xTaskIncrementTick.part.0+0xfe>
    800021a8:	0207b423          	sd	zero,40(a5)
    800021ac:	6314                	ld	a3,0(a4)
    800021ae:	16fd                	addi	a3,a3,-1
    800021b0:	e314                	sd	a3,0(a4)
    800021b2:	6bb8                	ld	a4,80(a5)
    800021b4:	c715                	beqz	a4,800021e0 <xTaskIncrementTick.part.0+0xac>
    800021b6:	0387b283          	ld	t0,56(a5)
    800021ba:	0407bf83          	ld	t6,64(a5)
    800021be:	03078693          	addi	a3,a5,48
    800021c2:	01f2b823          	sd	t6,16(t0)
    800021c6:	0387b283          	ld	t0,56(a5)
    800021ca:	005fb423          	sd	t0,8(t6) # 8008 <__stack_size+0x7edc>
    800021ce:	00873f83          	ld	t6,8(a4)
    800021d2:	0cdf8463          	beq	t6,a3,8000229a <xTaskIncrementTick.part.0+0x166>
    800021d6:	0407b823          	sd	zero,80(a5)
    800021da:	6314                	ld	a3,0(a4)
    800021dc:	16fd                	addi	a3,a3,-1
    800021de:	e314                	sd	a3,0(a4)
    800021e0:	6fb4                	ld	a3,88(a5)
    800021e2:	00033703          	ld	a4,0(t1)
    800021e6:	00d77463          	bgeu	a4,a3,800021ee <xTaskIncrementTick.part.0+0xba>
    800021ea:	00d33023          	sd	a3,0(t1)
    800021ee:	00269713          	slli	a4,a3,0x2
    800021f2:	9736                	add	a4,a4,a3
    800021f4:	070e                	slli	a4,a4,0x3
    800021f6:	9742                	add	a4,a4,a6
    800021f8:	7b18                	ld	a4,48(a4)
    800021fa:	eb98                	sd	a4,16(a5)
    800021fc:	6b14                	ld	a3,16(a4)
    800021fe:	ef94                	sd	a3,24(a5)
    80002200:	e690                	sd	a2,8(a3)
    80002202:	eb10                	sd	a2,16(a4)
    80002204:	6fb4                	ld	a3,88(a5)
    80002206:	00269713          	slli	a4,a3,0x2
    8000220a:	9736                	add	a4,a4,a3
    8000220c:	070e                	slli	a4,a4,0x3
    8000220e:	00ee86b3          	add	a3,t4,a4
    80002212:	f794                	sd	a3,40(a5)
    80002214:	9742                	add	a4,a4,a6
    80002216:	7714                	ld	a3,40(a4)
    80002218:	0685                	addi	a3,a3,1
    8000221a:	f714                	sd	a3,40(a4)
    8000221c:	000e3683          	ld	a3,0(t3)
    80002220:	6fb8                	ld	a4,88(a5)
    80002222:	6ebc                	ld	a5,88(a3)
    80002224:	00e7f363          	bgeu	a5,a4,8000222a <xTaskIncrementTick.part.0+0xf6>
    80002228:	4505                	li	a0,1
    8000222a:	0008b783          	ld	a5,0(a7)
    8000222e:	639c                	ld	a5,0(a5)
    80002230:	c7d1                	beqz	a5,800022bc <xTaskIncrementTick.part.0+0x188>
    80002232:	0008b783          	ld	a5,0(a7)
    80002236:	6f9c                	ld	a5,24(a5)
    80002238:	6f9c                	ld	a5,24(a5)
    8000223a:	6798                	ld	a4,8(a5)
    8000223c:	08e5e463          	bltu	a1,a4,800022c4 <xTaskIncrementTick.part.0+0x190>
    80002240:	0107bf83          	ld	t6,16(a5)
    80002244:	6f94                	ld	a3,24(a5)
    80002246:	7798                	ld	a4,40(a5)
    80002248:	00878613          	addi	a2,a5,8
    8000224c:	00dfb823          	sd	a3,16(t6)
    80002250:	0107bf83          	ld	t6,16(a5)
    80002254:	01f6b423          	sd	t6,8(a3)
    80002258:	6714                	ld	a3,8(a4)
    8000225a:	f4c697e3          	bne	a3,a2,800021a8 <xTaskIncrementTick.part.0+0x74>
    8000225e:	6f94                	ld	a3,24(a5)
    80002260:	e714                	sd	a3,8(a4)
    80002262:	b799                	j	800021a8 <xTaskIncrementTick.part.0+0x74>
    80002264:	4501                	li	a0,0
    80002266:	ef018813          	addi	a6,gp,-272 # 80028478 <xSuspendedTaskList>
    8000226a:	a1818e13          	addi	t3,gp,-1512 # 80027fa0 <pxCurrentTCB>
    8000226e:	000e3783          	ld	a5,0(t3)
    80002272:	4685                	li	a3,1
    80002274:	6fb8                	ld	a4,88(a5)
    80002276:	00271793          	slli	a5,a4,0x2
    8000227a:	97ba                	add	a5,a5,a4
    8000227c:	078e                	slli	a5,a5,0x3
    8000227e:	983e                	add	a6,a6,a5
    80002280:	02883783          	ld	a5,40(a6)
    80002284:	00f6f363          	bgeu	a3,a5,8000228a <xTaskIncrementTick.part.0+0x156>
    80002288:	4505                	li	a0,1
    8000228a:	9d81b783          	ld	a5,-1576(gp) # 80027f60 <xPendedTicks>
    8000228e:	cb91                	beqz	a5,800022a2 <xTaskIncrementTick.part.0+0x16e>
    80002290:	9d01b783          	ld	a5,-1584(gp) # 80027f58 <xYieldPendings>
    80002294:	c791                	beqz	a5,800022a0 <xTaskIncrementTick.part.0+0x16c>
    80002296:	4505                	li	a0,1
    80002298:	8082                	ret
    8000229a:	63b4                	ld	a3,64(a5)
    8000229c:	e714                	sd	a3,8(a4)
    8000229e:	bf25                	j	800021d6 <xTaskIncrementTick.part.0+0xa2>
    800022a0:	8082                	ret
    800022a2:	1101                	addi	sp,sp,-32
    800022a4:	e42a                	sd	a0,8(sp)
    800022a6:	ec06                	sd	ra,24(sp)
    800022a8:	348140ef          	jal	ra,800165f0 <vApplicationTickHook>
    800022ac:	9d01b783          	ld	a5,-1584(gp) # 80027f58 <xYieldPendings>
    800022b0:	6522                	ld	a0,8(sp)
    800022b2:	c391                	beqz	a5,800022b6 <xTaskIncrementTick.part.0+0x182>
    800022b4:	4505                	li	a0,1
    800022b6:	60e2                	ld	ra,24(sp)
    800022b8:	6105                	addi	sp,sp,32
    800022ba:	8082                	ret
    800022bc:	57fd                	li	a5,-1
    800022be:	00ff3023          	sd	a5,0(t5)
    800022c2:	b775                	j	8000226e <xTaskIncrementTick.part.0+0x13a>
    800022c4:	00ef3023          	sd	a4,0(t5)
    800022c8:	b75d                	j	8000226e <xTaskIncrementTick.part.0+0x13a>
    800022ca:	639c                	ld	a5,0(a5)
    800022cc:	9b818f13          	addi	t5,gp,-1608 # 80027f40 <xNextTaskUnblockTime>
    800022d0:	6f9c                	ld	a5,24(a5)
    800022d2:	639c                	ld	a5,0(a5)
    800022d4:	00ff3023          	sd	a5,0(t5)
    800022d8:	b55d                	j	8000217e <xTaskIncrementTick.part.0+0x4a>

00000000800022da <xTaskResumeAll.part.0>:
    800022da:	7179                	addi	sp,sp,-48
    800022dc:	ec26                	sd	s1,24(sp)
    800022de:	9a818493          	addi	s1,gp,-1624 # 80027f30 <uxSchedulerSuspended>
    800022e2:	609c                	ld	a5,0(s1)
    800022e4:	f406                	sd	ra,40(sp)
    800022e6:	f022                	sd	s0,32(sp)
    800022e8:	17fd                	addi	a5,a5,-1
    800022ea:	e09c                	sd	a5,0(s1)
    800022ec:	609c                	ld	a5,0(s1)
    800022ee:	e84a                	sd	s2,16(sp)
    800022f0:	e44e                	sd	s3,8(sp)
    800022f2:	e052                	sd	s4,0(sp)
    800022f4:	0e079163          	bnez	a5,800023d6 <xTaskResumeAll.part.0+0xfc>
    800022f8:	9f81b783          	ld	a5,-1544(gp) # 80027f80 <uxCurrentNumberOfTasks>
    800022fc:	cfe9                	beqz	a5,800023d6 <xTaskResumeAll.part.0+0xfc>
    800022fe:	ef018613          	addi	a2,gp,-272 # 80028478 <xSuspendedTaskList>
    80002302:	11863783          	ld	a5,280(a2)
    80002306:	9d018413          	addi	s0,gp,-1584 # 80027f58 <xYieldPendings>
    8000230a:	10078463          	beqz	a5,80002412 <xTaskResumeAll.part.0+0x138>
    8000230e:	9e818513          	addi	a0,gp,-1560 # 80027f70 <uxTopReadyPriority>
    80002312:	f1818893          	addi	a7,gp,-232 # 800284a0 <pxReadyTasksLists>
    80002316:	a1818813          	addi	a6,gp,-1512 # 80027fa0 <pxCurrentTCB>
    8000231a:	9d018413          	addi	s0,gp,-1584 # 80027f58 <xYieldPendings>
    8000231e:	4305                	li	t1,1
    80002320:	a051                	j	800023a4 <xTaskResumeAll.part.0+0xca>
    80002322:	0407b823          	sd	zero,80(a5)
    80002326:	6314                	ld	a3,0(a4)
    80002328:	16fd                	addi	a3,a3,-1
    8000232a:	e314                	sd	a3,0(a4)
    8000232c:	0107be03          	ld	t3,16(a5)
    80002330:	6f94                	ld	a3,24(a5)
    80002332:	7798                	ld	a4,40(a5)
    80002334:	00878593          	addi	a1,a5,8
    80002338:	00de3823          	sd	a3,16(t3)
    8000233c:	0107be03          	ld	t3,16(a5)
    80002340:	01c6b423          	sd	t3,8(a3)
    80002344:	6714                	ld	a3,8(a4)
    80002346:	0ab68963          	beq	a3,a1,800023f8 <xTaskResumeAll.part.0+0x11e>
    8000234a:	0207b423          	sd	zero,40(a5)
    8000234e:	6314                	ld	a3,0(a4)
    80002350:	16fd                	addi	a3,a3,-1
    80002352:	e314                	sd	a3,0(a4)
    80002354:	6fb4                	ld	a3,88(a5)
    80002356:	00053e03          	ld	t3,0(a0)
    8000235a:	00269713          	slli	a4,a3,0x2
    8000235e:	9736                	add	a4,a4,a3
    80002360:	070e                	slli	a4,a4,0x3
    80002362:	9732                	add	a4,a4,a2
    80002364:	00de7363          	bgeu	t3,a3,8000236a <xTaskResumeAll.part.0+0x90>
    80002368:	e114                	sd	a3,0(a0)
    8000236a:	7b18                	ld	a4,48(a4)
    8000236c:	eb98                	sd	a4,16(a5)
    8000236e:	6b14                	ld	a3,16(a4)
    80002370:	ef94                	sd	a3,24(a5)
    80002372:	e68c                	sd	a1,8(a3)
    80002374:	eb0c                	sd	a1,16(a4)
    80002376:	6fb4                	ld	a3,88(a5)
    80002378:	00269713          	slli	a4,a3,0x2
    8000237c:	9736                	add	a4,a4,a3
    8000237e:	070e                	slli	a4,a4,0x3
    80002380:	00e886b3          	add	a3,a7,a4
    80002384:	f794                	sd	a3,40(a5)
    80002386:	9732                	add	a4,a4,a2
    80002388:	7714                	ld	a3,40(a4)
    8000238a:	0685                	addi	a3,a3,1
    8000238c:	f714                	sd	a3,40(a4)
    8000238e:	00083683          	ld	a3,0(a6)
    80002392:	6fb8                	ld	a4,88(a5)
    80002394:	6ebc                	ld	a5,88(a3)
    80002396:	00e7f463          	bgeu	a5,a4,8000239e <xTaskResumeAll.part.0+0xc4>
    8000239a:	00643023          	sd	t1,0(s0)
    8000239e:	11863783          	ld	a5,280(a2)
    800023a2:	cfb1                	beqz	a5,800023fe <xTaskResumeAll.part.0+0x124>
    800023a4:	13063783          	ld	a5,304(a2)
    800023a8:	6f9c                	ld	a5,24(a5)
    800023aa:	0387be03          	ld	t3,56(a5)
    800023ae:	63b4                	ld	a3,64(a5)
    800023b0:	6bb8                	ld	a4,80(a5)
    800023b2:	03078593          	addi	a1,a5,48
    800023b6:	00de3823          	sd	a3,16(t3)
    800023ba:	0387be03          	ld	t3,56(a5)
    800023be:	01c6b423          	sd	t3,8(a3)
    800023c2:	6714                	ld	a3,8(a4)
    800023c4:	f4b69fe3          	bne	a3,a1,80002322 <xTaskResumeAll.part.0+0x48>
    800023c8:	63b4                	ld	a3,64(a5)
    800023ca:	e714                	sd	a3,8(a4)
    800023cc:	bf99                	j	80002322 <xTaskResumeAll.part.0+0x48>
    800023ce:	9c01bc23          	sd	zero,-1576(gp) # 80027f60 <xPendedTicks>
    800023d2:	601c                	ld	a5,0(s0)
    800023d4:	ebad                	bnez	a5,80002446 <xTaskResumeAll.part.0+0x16c>
    800023d6:	4501                	li	a0,0
    800023d8:	81018713          	addi	a4,gp,-2032 # 80027d98 <xCriticalNesting>
    800023dc:	631c                	ld	a5,0(a4)
    800023de:	17fd                	addi	a5,a5,-1
    800023e0:	e31c                	sd	a5,0(a4)
    800023e2:	e399                	bnez	a5,800023e8 <xTaskResumeAll.part.0+0x10e>
    800023e4:	30046073          	csrsi	mstatus,8
    800023e8:	70a2                	ld	ra,40(sp)
    800023ea:	7402                	ld	s0,32(sp)
    800023ec:	64e2                	ld	s1,24(sp)
    800023ee:	6942                	ld	s2,16(sp)
    800023f0:	69a2                	ld	s3,8(sp)
    800023f2:	6a02                	ld	s4,0(sp)
    800023f4:	6145                	addi	sp,sp,48
    800023f6:	8082                	ret
    800023f8:	6f94                	ld	a3,24(a5)
    800023fa:	e714                	sd	a3,8(a4)
    800023fc:	b7b9                	j	8000234a <xTaskResumeAll.part.0+0x70>
    800023fe:	a1018793          	addi	a5,gp,-1520 # 80027f98 <pxDelayedTaskList>
    80002402:	6398                	ld	a4,0(a5)
    80002404:	6318                	ld	a4,0(a4)
    80002406:	c731                	beqz	a4,80002452 <xTaskResumeAll.part.0+0x178>
    80002408:	639c                	ld	a5,0(a5)
    8000240a:	6f9c                	ld	a5,24(a5)
    8000240c:	639c                	ld	a5,0(a5)
    8000240e:	9af1bc23          	sd	a5,-1608(gp) # 80027f40 <xNextTaskUnblockTime>
    80002412:	9d818993          	addi	s3,gp,-1576 # 80027f60 <xPendedTicks>
    80002416:	0009b903          	ld	s2,0(s3)
    8000241a:	fa090ce3          	beqz	s2,800023d2 <xTaskResumeAll.part.0+0xf8>
    8000241e:	4a05                	li	s4,1
    80002420:	a809                	j	80002432 <xTaskResumeAll.part.0+0x158>
    80002422:	d13ff0ef          	jal	ra,80002134 <xTaskIncrementTick.part.0>
    80002426:	c119                	beqz	a0,8000242c <xTaskResumeAll.part.0+0x152>
    80002428:	01443023          	sd	s4,0(s0)
    8000242c:	197d                	addi	s2,s2,-1
    8000242e:	fa0900e3          	beqz	s2,800023ce <xTaskResumeAll.part.0+0xf4>
    80002432:	609c                	ld	a5,0(s1)
    80002434:	d7fd                	beqz	a5,80002422 <xTaskResumeAll.part.0+0x148>
    80002436:	0009b783          	ld	a5,0(s3)
    8000243a:	0785                	addi	a5,a5,1
    8000243c:	00f9b023          	sd	a5,0(s3)
    80002440:	1b0140ef          	jal	ra,800165f0 <vApplicationTickHook>
    80002444:	b7e5                	j	8000242c <xTaskResumeAll.part.0+0x152>
    80002446:	a181b783          	ld	a5,-1512(gp) # 80027fa0 <pxCurrentTCB>
    8000244a:	00000073          	ecall
    8000244e:	4505                	li	a0,1
    80002450:	b761                	j	800023d8 <xTaskResumeAll.part.0+0xfe>
    80002452:	57fd                	li	a5,-1
    80002454:	9af1bc23          	sd	a5,-1608(gp) # 80027f40 <xNextTaskUnblockTime>
    80002458:	bf6d                	j	80002412 <xTaskResumeAll.part.0+0x138>

000000008000245a <xTaskCreate>:
    8000245a:	715d                	addi	sp,sp,-80
    8000245c:	e062                	sd	s8,0(sp)
    8000245e:	00361c13          	slli	s8,a2,0x3
    80002462:	e85a                	sd	s6,16(sp)
    80002464:	8b2a                	mv	s6,a0
    80002466:	8562                	mv	a0,s8
    80002468:	e0a2                	sd	s0,64(sp)
    8000246a:	f44e                	sd	s3,40(sp)
    8000246c:	f052                	sd	s4,32(sp)
    8000246e:	ec56                	sd	s5,24(sp)
    80002470:	e45e                	sd	s7,8(sp)
    80002472:	e486                	sd	ra,72(sp)
    80002474:	fc26                	sd	s1,56(sp)
    80002476:	f84a                	sd	s2,48(sp)
    80002478:	89b2                	mv	s3,a2
    8000247a:	842e                	mv	s0,a1
    8000247c:	8bb6                	mv	s7,a3
    8000247e:	8a3a                	mv	s4,a4
    80002480:	8abe                	mv	s5,a5
    80002482:	52b010ef          	jal	ra,800041ac <pvPortMalloc>
    80002486:	c125                	beqz	a0,800024e6 <xTaskCreate+0x8c>
    80002488:	892a                	mv	s2,a0
    8000248a:	09000513          	li	a0,144
    8000248e:	51f010ef          	jal	ra,800041ac <pvPortMalloc>
    80002492:	84aa                	mv	s1,a0
    80002494:	c535                	beqz	a0,80002500 <xTaskCreate+0xa6>
    80002496:	09000613          	li	a2,144
    8000249a:	4581                	li	a1,0
    8000249c:	069140ef          	jal	ra,80016d04 <memset>
    800024a0:	854a                	mv	a0,s2
    800024a2:	0724b023          	sd	s2,96(s1)
    800024a6:	8662                	mv	a2,s8
    800024a8:	0a500593          	li	a1,165
    800024ac:	059140ef          	jal	ra,80016d04 <memset>
    800024b0:	0604b903          	ld	s2,96(s1)
    800024b4:	c015                	beqz	s0,800024d8 <xTaskCreate+0x7e>
    800024b6:	85a2                	mv	a1,s0
    800024b8:	06848813          	addi	a6,s1,104
    800024bc:	01040793          	addi	a5,s0,16
    800024c0:	0005c883          	lbu	a7,0(a1)
    800024c4:	0805                	addi	a6,a6,1
    800024c6:	0585                	addi	a1,a1,1
    800024c8:	ff180fa3          	sb	a7,-1(a6)
    800024cc:	00088463          	beqz	a7,800024d4 <xTaskCreate+0x7a>
    800024d0:	fef598e3          	bne	a1,a5,800024c0 <xTaskCreate+0x66>
    800024d4:	06048ba3          	sb	zero,119(s1)
    800024d8:	4791                	li	a5,4
    800024da:	0347f863          	bgeu	a5,s4,8000250a <xTaskCreate+0xb0>
    800024de:	30047073          	csrci	mstatus,8
    800024e2:	9002                	ebreak
    800024e4:	a001                	j	800024e4 <xTaskCreate+0x8a>
    800024e6:	557d                	li	a0,-1
    800024e8:	60a6                	ld	ra,72(sp)
    800024ea:	6406                	ld	s0,64(sp)
    800024ec:	74e2                	ld	s1,56(sp)
    800024ee:	7942                	ld	s2,48(sp)
    800024f0:	79a2                	ld	s3,40(sp)
    800024f2:	7a02                	ld	s4,32(sp)
    800024f4:	6ae2                	ld	s5,24(sp)
    800024f6:	6b42                	ld	s6,16(sp)
    800024f8:	6ba2                	ld	s7,8(sp)
    800024fa:	6c02                	ld	s8,0(sp)
    800024fc:	6161                	addi	sp,sp,80
    800024fe:	8082                	ret
    80002500:	854a                	mv	a0,s2
    80002502:	643010ef          	jal	ra,80004344 <vPortFree>
    80002506:	557d                	li	a0,-1
    80002508:	b7c5                	j	800024e8 <xTaskCreate+0x8e>
    8000250a:	00848c13          	addi	s8,s1,8
    8000250e:	8562                	mv	a0,s8
    80002510:	0544bc23          	sd	s4,88(s1)
    80002514:	0744bc23          	sd	s4,120(s1)
    80002518:	9d2fe0ef          	jal	ra,800006ea <vListInitialiseItem>
    8000251c:	03048513          	addi	a0,s1,48
    80002520:	9cafe0ef          	jal	ra,800006ea <vListInitialiseItem>
    80002524:	fff9879b          	addiw	a5,s3,-1
    80002528:	02079713          	slli	a4,a5,0x20
    8000252c:	01d75793          	srli	a5,a4,0x1d
    80002530:	4715                	li	a4,5
    80002532:	41470a33          	sub	s4,a4,s4
    80002536:	97ca                	add	a5,a5,s2
    80002538:	f084                	sd	s1,32(s1)
    8000253a:	0344b823          	sd	s4,48(s1)
    8000253e:	e4a4                	sd	s1,72(s1)
    80002540:	865e                	mv	a2,s7
    80002542:	85da                	mv	a1,s6
    80002544:	ff07f513          	andi	a0,a5,-16
    80002548:	1b3130ef          	jal	ra,80015efa <pxPortInitialiseStack>
    8000254c:	e088                	sd	a0,0(s1)
    8000254e:	000a8463          	beqz	s5,80002556 <xTaskCreate+0xfc>
    80002552:	009ab023          	sd	s1,0(s5)
    80002556:	30047073          	csrci	mstatus,8
    8000255a:	9f818713          	addi	a4,gp,-1544 # 80027f80 <uxCurrentNumberOfTasks>
    8000255e:	631c                	ld	a5,0(a4)
    80002560:	81018413          	addi	s0,gp,-2032 # 80027d98 <xCriticalNesting>
    80002564:	6014                	ld	a3,0(s0)
    80002566:	0785                	addi	a5,a5,1
    80002568:	e31c                	sd	a5,0(a4)
    8000256a:	a1818993          	addi	s3,gp,-1512 # 80027fa0 <pxCurrentTCB>
    8000256e:	0009b783          	ld	a5,0(s3)
    80002572:	00168613          	addi	a2,a3,1
    80002576:	e010                	sd	a2,0(s0)
    80002578:	c7d9                	beqz	a5,80002606 <xTaskCreate+0x1ac>
    8000257a:	9e018593          	addi	a1,gp,-1568 # 80027f68 <xSchedulerRunning>
    8000257e:	619c                	ld	a5,0(a1)
    80002580:	6cb8                	ld	a4,88(s1)
    80002582:	f1818913          	addi	s2,gp,-232 # 800284a0 <pxReadyTasksLists>
    80002586:	eb81                	bnez	a5,80002596 <xTaskCreate+0x13c>
    80002588:	0009b783          	ld	a5,0(s3)
    8000258c:	6fbc                	ld	a5,88(a5)
    8000258e:	00f76463          	bltu	a4,a5,80002596 <xTaskCreate+0x13c>
    80002592:	0099b023          	sd	s1,0(s3)
    80002596:	9c018613          	addi	a2,gp,-1600 # 80027f48 <uxTaskNumber>
    8000259a:	621c                	ld	a5,0(a2)
    8000259c:	9e818513          	addi	a0,gp,-1560 # 80027f70 <uxTopReadyPriority>
    800025a0:	00053803          	ld	a6,0(a0)
    800025a4:	0785                	addi	a5,a5,1
    800025a6:	e21c                	sd	a5,0(a2)
    800025a8:	00e87363          	bgeu	a6,a4,800025ae <xTaskCreate+0x154>
    800025ac:	e118                	sd	a4,0(a0)
    800025ae:	00271793          	slli	a5,a4,0x2
    800025b2:	97ba                	add	a5,a5,a4
    800025b4:	078e                	slli	a5,a5,0x3
    800025b6:	ef018713          	addi	a4,gp,-272 # 80028478 <xSuspendedTaskList>
    800025ba:	97ba                	add	a5,a5,a4
    800025bc:	7b9c                	ld	a5,48(a5)
    800025be:	e014                	sd	a3,0(s0)
    800025c0:	e89c                	sd	a5,16(s1)
    800025c2:	6b90                	ld	a2,16(a5)
    800025c4:	ec90                	sd	a2,24(s1)
    800025c6:	01863423          	sd	s8,8(a2)
    800025ca:	0187b823          	sd	s8,16(a5)
    800025ce:	6cb0                	ld	a2,88(s1)
    800025d0:	00261793          	slli	a5,a2,0x2
    800025d4:	97b2                	add	a5,a5,a2
    800025d6:	078e                	slli	a5,a5,0x3
    800025d8:	993e                	add	s2,s2,a5
    800025da:	0324b423          	sd	s2,40(s1)
    800025de:	97ba                	add	a5,a5,a4
    800025e0:	7798                	ld	a4,40(a5)
    800025e2:	0705                	addi	a4,a4,1
    800025e4:	f798                	sd	a4,40(a5)
    800025e6:	e299                	bnez	a3,800025ec <xTaskCreate+0x192>
    800025e8:	30046073          	csrsi	mstatus,8
    800025ec:	619c                	ld	a5,0(a1)
    800025ee:	4505                	li	a0,1
    800025f0:	ee078ce3          	beqz	a5,800024e8 <xTaskCreate+0x8e>
    800025f4:	0009b703          	ld	a4,0(s3)
    800025f8:	6cbc                	ld	a5,88(s1)
    800025fa:	6f38                	ld	a4,88(a4)
    800025fc:	eef776e3          	bgeu	a4,a5,800024e8 <xTaskCreate+0x8e>
    80002600:	00000073          	ecall
    80002604:	b5d5                	j	800024e8 <xTaskCreate+0x8e>
    80002606:	0099b023          	sd	s1,0(s3)
    8000260a:	6318                	ld	a4,0(a4)
    8000260c:	4785                	li	a5,1
    8000260e:	00f70863          	beq	a4,a5,8000261e <xTaskCreate+0x1c4>
    80002612:	6cb8                	ld	a4,88(s1)
    80002614:	f1818913          	addi	s2,gp,-232 # 800284a0 <pxReadyTasksLists>
    80002618:	9e018593          	addi	a1,gp,-1568 # 80027f68 <xSchedulerRunning>
    8000261c:	bfad                	j	80002596 <xTaskCreate+0x13c>
    8000261e:	f1818913          	addi	s2,gp,-232 # 800284a0 <pxReadyTasksLists>
    80002622:	8a4a                	mv	s4,s2
    80002624:	fe018a93          	addi	s5,gp,-32 # 80028568 <xTasksWaitingTermination>
    80002628:	8552                	mv	a0,s4
    8000262a:	028a0a13          	addi	s4,s4,40
    8000262e:	8a8fe0ef          	jal	ra,800006d6 <vListInitialise>
    80002632:	ff5a1be3          	bne	s4,s5,80002628 <xTaskCreate+0x1ce>
    80002636:	03018a93          	addi	s5,gp,48 # 800285b8 <xDelayedTaskList1>
    8000263a:	8556                	mv	a0,s5
    8000263c:	89afe0ef          	jal	ra,800006d6 <vListInitialise>
    80002640:	05818a13          	addi	s4,gp,88 # 800285e0 <xDelayedTaskList2>
    80002644:	8552                	mv	a0,s4
    80002646:	890fe0ef          	jal	ra,800006d6 <vListInitialise>
    8000264a:	00818513          	addi	a0,gp,8 # 80028590 <xPendingReadyList>
    8000264e:	888fe0ef          	jal	ra,800006d6 <vListInitialise>
    80002652:	fe018513          	addi	a0,gp,-32 # 80028568 <xTasksWaitingTermination>
    80002656:	880fe0ef          	jal	ra,800006d6 <vListInitialise>
    8000265a:	ef018513          	addi	a0,gp,-272 # 80028478 <xSuspendedTaskList>
    8000265e:	878fe0ef          	jal	ra,800006d6 <vListInitialise>
    80002662:	6014                	ld	a3,0(s0)
    80002664:	a151b823          	sd	s5,-1520(gp) # 80027f98 <pxDelayedTaskList>
    80002668:	6cb8                	ld	a4,88(s1)
    8000266a:	a141b423          	sd	s4,-1528(gp) # 80027f90 <pxOverflowDelayedTaskList>
    8000266e:	16fd                	addi	a3,a3,-1
    80002670:	9e018593          	addi	a1,gp,-1568 # 80027f68 <xSchedulerRunning>
    80002674:	b70d                	j	80002596 <xTaskCreate+0x13c>

0000000080002676 <vTaskDelete>:
    80002676:	7179                	addi	sp,sp,-48
    80002678:	f406                	sd	ra,40(sp)
    8000267a:	f022                	sd	s0,32(sp)
    8000267c:	ec26                	sd	s1,24(sp)
    8000267e:	e84a                	sd	s2,16(sp)
    80002680:	e44e                	sd	s3,8(sp)
    80002682:	30047073          	csrci	mstatus,8
    80002686:	81018493          	addi	s1,gp,-2032 # 80027d98 <xCriticalNesting>
    8000268a:	609c                	ld	a5,0(s1)
    8000268c:	a1818913          	addi	s2,gp,-1512 # 80027fa0 <pxCurrentTCB>
    80002690:	842a                	mv	s0,a0
    80002692:	0785                	addi	a5,a5,1
    80002694:	e09c                	sd	a5,0(s1)
    80002696:	c14d                	beqz	a0,80002738 <vTaskDelete+0xc2>
    80002698:	00840993          	addi	s3,s0,8
    8000269c:	854e                	mv	a0,s3
    8000269e:	896fe0ef          	jal	ra,80000734 <uxListRemove>
    800026a2:	683c                	ld	a5,80(s0)
    800026a4:	c789                	beqz	a5,800026ae <vTaskDelete+0x38>
    800026a6:	03040513          	addi	a0,s0,48
    800026aa:	88afe0ef          	jal	ra,80000734 <uxListRemove>
    800026ae:	9c018713          	addi	a4,gp,-1600 # 80027f48 <uxTaskNumber>
    800026b2:	631c                	ld	a5,0(a4)
    800026b4:	00093683          	ld	a3,0(s2)
    800026b8:	0785                	addi	a5,a5,1
    800026ba:	e31c                	sd	a5,0(a4)
    800026bc:	06868363          	beq	a3,s0,80002722 <vTaskDelete+0xac>
    800026c0:	9f818713          	addi	a4,gp,-1544 # 80027f80 <uxCurrentNumberOfTasks>
    800026c4:	631c                	ld	a5,0(a4)
    800026c6:	a1018693          	addi	a3,gp,-1520 # 80027f98 <pxDelayedTaskList>
    800026ca:	17fd                	addi	a5,a5,-1
    800026cc:	e31c                	sd	a5,0(a4)
    800026ce:	629c                	ld	a5,0(a3)
    800026d0:	639c                	ld	a5,0(a5)
    800026d2:	c7a1                	beqz	a5,8000271a <vTaskDelete+0xa4>
    800026d4:	629c                	ld	a5,0(a3)
    800026d6:	6f9c                	ld	a5,24(a5)
    800026d8:	639c                	ld	a5,0(a5)
    800026da:	9af1bc23          	sd	a5,-1608(gp) # 80027f40 <xNextTaskUnblockTime>
    800026de:	609c                	ld	a5,0(s1)
    800026e0:	17fd                	addi	a5,a5,-1
    800026e2:	e09c                	sd	a5,0(s1)
    800026e4:	e399                	bnez	a5,800026ea <vTaskDelete+0x74>
    800026e6:	30046073          	csrsi	mstatus,8
    800026ea:	00093783          	ld	a5,0(s2)
    800026ee:	00878863          	beq	a5,s0,800026fe <vTaskDelete+0x88>
    800026f2:	7028                	ld	a0,96(s0)
    800026f4:	451010ef          	jal	ra,80004344 <vPortFree>
    800026f8:	8522                	mv	a0,s0
    800026fa:	44b010ef          	jal	ra,80004344 <vPortFree>
    800026fe:	9e01b783          	ld	a5,-1568(gp) # 80027f68 <xSchedulerRunning>
    80002702:	c789                	beqz	a5,8000270c <vTaskDelete+0x96>
    80002704:	00093783          	ld	a5,0(s2)
    80002708:	02878b63          	beq	a5,s0,8000273e <vTaskDelete+0xc8>
    8000270c:	70a2                	ld	ra,40(sp)
    8000270e:	7402                	ld	s0,32(sp)
    80002710:	64e2                	ld	s1,24(sp)
    80002712:	6942                	ld	s2,16(sp)
    80002714:	69a2                	ld	s3,8(sp)
    80002716:	6145                	addi	sp,sp,48
    80002718:	8082                	ret
    8000271a:	57fd                	li	a5,-1
    8000271c:	9af1bc23          	sd	a5,-1608(gp) # 80027f40 <xNextTaskUnblockTime>
    80002720:	bf7d                	j	800026de <vTaskDelete+0x68>
    80002722:	85ce                	mv	a1,s3
    80002724:	fe018513          	addi	a0,gp,-32 # 80028568 <xTasksWaitingTermination>
    80002728:	fc9fd0ef          	jal	ra,800006f0 <vListInsertEnd>
    8000272c:	a0018713          	addi	a4,gp,-1536 # 80027f88 <uxDeletedTasksWaitingCleanUp>
    80002730:	631c                	ld	a5,0(a4)
    80002732:	0785                	addi	a5,a5,1
    80002734:	e31c                	sd	a5,0(a4)
    80002736:	b765                	j	800026de <vTaskDelete+0x68>
    80002738:	00093403          	ld	s0,0(s2)
    8000273c:	bfb1                	j	80002698 <vTaskDelete+0x22>
    8000273e:	9a81b783          	ld	a5,-1624(gp) # 80027f30 <uxSchedulerSuspended>
    80002742:	c789                	beqz	a5,8000274c <vTaskDelete+0xd6>
    80002744:	30047073          	csrci	mstatus,8
    80002748:	9002                	ebreak
    8000274a:	a001                	j	8000274a <vTaskDelete+0xd4>
    8000274c:	00000073          	ecall
    80002750:	bf75                	j	8000270c <vTaskDelete+0x96>

0000000080002752 <xTaskDelayUntil>:
    80002752:	c90d                	beqz	a0,80002784 <xTaskDelayUntil+0x32>
    80002754:	c585                	beqz	a1,8000277c <xTaskDelayUntil+0x2a>
    80002756:	1101                	addi	sp,sp,-32
    80002758:	e822                	sd	s0,16(sp)
    8000275a:	9a818413          	addi	s0,gp,-1624 # 80027f30 <uxSchedulerSuspended>
    8000275e:	601c                	ld	a5,0(s0)
    80002760:	ec06                	sd	ra,24(sp)
    80002762:	e426                	sd	s1,8(sp)
    80002764:	0785                	addi	a5,a5,1
    80002766:	e01c                	sd	a5,0(s0)
    80002768:	9f01b683          	ld	a3,-1552(gp) # 80027f78 <xTickCount>
    8000276c:	6018                	ld	a4,0(s0)
    8000276e:	4785                	li	a5,1
    80002770:	00f70e63          	beq	a4,a5,8000278c <xTaskDelayUntil+0x3a>
    80002774:	30047073          	csrci	mstatus,8
    80002778:	9002                	ebreak
    8000277a:	a001                	j	8000277a <xTaskDelayUntil+0x28>
    8000277c:	30047073          	csrci	mstatus,8
    80002780:	9002                	ebreak
    80002782:	a001                	j	80002782 <xTaskDelayUntil+0x30>
    80002784:	30047073          	csrci	mstatus,8
    80002788:	9002                	ebreak
    8000278a:	a001                	j	8000278a <xTaskDelayUntil+0x38>
    8000278c:	6118                	ld	a4,0(a0)
    8000278e:	00b707b3          	add	a5,a4,a1
    80002792:	e11c                	sd	a5,0(a0)
    80002794:	02e6f263          	bgeu	a3,a4,800027b8 <xTaskDelayUntil+0x66>
    80002798:	02e7e263          	bltu	a5,a4,800027bc <xTaskDelayUntil+0x6a>
    8000279c:	4481                	li	s1,0
    8000279e:	30047073          	csrci	mstatus,8
    800027a2:	81018713          	addi	a4,gp,-2032 # 80027d98 <xCriticalNesting>
    800027a6:	631c                	ld	a5,0(a4)
    800027a8:	6014                	ld	a3,0(s0)
    800027aa:	0785                	addi	a5,a5,1
    800027ac:	e31c                	sd	a5,0(a4)
    800027ae:	e285                	bnez	a3,800027ce <xTaskDelayUntil+0x7c>
    800027b0:	30047073          	csrci	mstatus,8
    800027b4:	9002                	ebreak
    800027b6:	a001                	j	800027b6 <xTaskDelayUntil+0x64>
    800027b8:	00e7e463          	bltu	a5,a4,800027c0 <xTaskDelayUntil+0x6e>
    800027bc:	fef6f0e3          	bgeu	a3,a5,8000279c <xTaskDelayUntil+0x4a>
    800027c0:	4581                	li	a1,0
    800027c2:	40d78533          	sub	a0,a5,a3
    800027c6:	fa8ff0ef          	jal	ra,80001f6e <prvAddCurrentTaskToDelayedList>
    800027ca:	4485                	li	s1,1
    800027cc:	bfc9                	j	8000279e <xTaskDelayUntil+0x4c>
    800027ce:	b0dff0ef          	jal	ra,800022da <xTaskResumeAll.part.0>
    800027d2:	e119                	bnez	a0,800027d8 <xTaskDelayUntil+0x86>
    800027d4:	00000073          	ecall
    800027d8:	60e2                	ld	ra,24(sp)
    800027da:	6442                	ld	s0,16(sp)
    800027dc:	8526                	mv	a0,s1
    800027de:	64a2                	ld	s1,8(sp)
    800027e0:	6105                	addi	sp,sp,32
    800027e2:	8082                	ret

00000000800027e4 <vTaskDelay>:
    800027e4:	e501                	bnez	a0,800027ec <vTaskDelay+0x8>
    800027e6:	00000073          	ecall
    800027ea:	8082                	ret
    800027ec:	1141                	addi	sp,sp,-16
    800027ee:	e022                	sd	s0,0(sp)
    800027f0:	9a818413          	addi	s0,gp,-1624 # 80027f30 <uxSchedulerSuspended>
    800027f4:	601c                	ld	a5,0(s0)
    800027f6:	e406                	sd	ra,8(sp)
    800027f8:	0785                	addi	a5,a5,1
    800027fa:	e01c                	sd	a5,0(s0)
    800027fc:	6018                	ld	a4,0(s0)
    800027fe:	4785                	li	a5,1
    80002800:	00f70663          	beq	a4,a5,8000280c <vTaskDelay+0x28>
    80002804:	30047073          	csrci	mstatus,8
    80002808:	9002                	ebreak
    8000280a:	a001                	j	8000280a <vTaskDelay+0x26>
    8000280c:	4581                	li	a1,0
    8000280e:	f60ff0ef          	jal	ra,80001f6e <prvAddCurrentTaskToDelayedList>
    80002812:	30047073          	csrci	mstatus,8
    80002816:	81018713          	addi	a4,gp,-2032 # 80027d98 <xCriticalNesting>
    8000281a:	631c                	ld	a5,0(a4)
    8000281c:	6014                	ld	a3,0(s0)
    8000281e:	0785                	addi	a5,a5,1
    80002820:	e31c                	sd	a5,0(a4)
    80002822:	e689                	bnez	a3,8000282c <vTaskDelay+0x48>
    80002824:	30047073          	csrci	mstatus,8
    80002828:	9002                	ebreak
    8000282a:	a001                	j	8000282a <vTaskDelay+0x46>
    8000282c:	aafff0ef          	jal	ra,800022da <xTaskResumeAll.part.0>
    80002830:	e119                	bnez	a0,80002836 <vTaskDelay+0x52>
    80002832:	00000073          	ecall
    80002836:	60a2                	ld	ra,8(sp)
    80002838:	6402                	ld	s0,0(sp)
    8000283a:	0141                	addi	sp,sp,16
    8000283c:	8082                	ret

000000008000283e <eTaskGetState>:
    8000283e:	87aa                	mv	a5,a0
    80002840:	c531                	beqz	a0,8000288c <eTaskGetState+0x4e>
    80002842:	a181b703          	ld	a4,-1512(gp) # 80027fa0 <pxCurrentTCB>
    80002846:	4501                	li	a0,0
    80002848:	04f70163          	beq	a4,a5,8000288a <eTaskGetState+0x4c>
    8000284c:	30047073          	csrci	mstatus,8
    80002850:	a101b583          	ld	a1,-1520(gp) # 80027f98 <pxDelayedTaskList>
    80002854:	8101b683          	ld	a3,-2032(gp) # 80027d98 <xCriticalNesting>
    80002858:	a081b803          	ld	a6,-1528(gp) # 80027f90 <pxOverflowDelayedTaskList>
    8000285c:	7798                	ld	a4,40(a5)
    8000285e:	6bb0                	ld	a2,80(a5)
    80002860:	e299                	bnez	a3,80002866 <eTaskGetState+0x28>
    80002862:	30046073          	csrsi	mstatus,8
    80002866:	00818693          	addi	a3,gp,8 # 80028590 <xPendingReadyList>
    8000286a:	ef018893          	addi	a7,gp,-272 # 80028478 <xSuspendedTaskList>
    8000286e:	4505                	li	a0,1
    80002870:	00d60d63          	beq	a2,a3,8000288a <eTaskGetState+0x4c>
    80002874:	02b70e63          	beq	a4,a1,800028b0 <eTaskGetState+0x72>
    80002878:	03070c63          	beq	a4,a6,800028b0 <eTaskGetState+0x72>
    8000287c:	01170c63          	beq	a4,a7,80002894 <eTaskGetState+0x56>
    80002880:	fe018793          	addi	a5,gp,-32 # 80028568 <xTasksWaitingTermination>
    80002884:	02f70463          	beq	a4,a5,800028ac <eTaskGetState+0x6e>
    80002888:	c315                	beqz	a4,800028ac <eTaskGetState+0x6e>
    8000288a:	8082                	ret
    8000288c:	30047073          	csrci	mstatus,8
    80002890:	9002                	ebreak
    80002892:	a001                	j	80002892 <eTaskGetState+0x54>
    80002894:	6bb8                	ld	a4,80(a5)
    80002896:	4509                	li	a0,2
    80002898:	fb6d                	bnez	a4,8000288a <eTaskGetState+0x4c>
    8000289a:	08c7c503          	lbu	a0,140(a5)
    8000289e:	0ff57513          	zext.b	a0,a0
    800028a2:	157d                	addi	a0,a0,-1
    800028a4:	00a03533          	snez	a0,a0
    800028a8:	0509                	addi	a0,a0,2
    800028aa:	8082                	ret
    800028ac:	4511                	li	a0,4
    800028ae:	8082                	ret
    800028b0:	4509                	li	a0,2
    800028b2:	8082                	ret

00000000800028b4 <uxTaskPriorityGet>:
    800028b4:	30047073          	csrci	mstatus,8
    800028b8:	8101b783          	ld	a5,-2032(gp) # 80027d98 <xCriticalNesting>
    800028bc:	c511                	beqz	a0,800028c8 <uxTaskPriorityGet+0x14>
    800028be:	6d28                	ld	a0,88(a0)
    800028c0:	e399                	bnez	a5,800028c6 <uxTaskPriorityGet+0x12>
    800028c2:	30046073          	csrsi	mstatus,8
    800028c6:	8082                	ret
    800028c8:	a181b503          	ld	a0,-1512(gp) # 80027fa0 <pxCurrentTCB>
    800028cc:	bfcd                	j	800028be <uxTaskPriorityGet+0xa>

00000000800028ce <uxTaskPriorityGetFromISR>:
    800028ce:	c119                	beqz	a0,800028d4 <uxTaskPriorityGetFromISR+0x6>
    800028d0:	6d28                	ld	a0,88(a0)
    800028d2:	8082                	ret
    800028d4:	a181b503          	ld	a0,-1512(gp) # 80027fa0 <pxCurrentTCB>
    800028d8:	6d28                	ld	a0,88(a0)
    800028da:	8082                	ret

00000000800028dc <uxTaskBasePriorityGet>:
    800028dc:	30047073          	csrci	mstatus,8
    800028e0:	8101b783          	ld	a5,-2032(gp) # 80027d98 <xCriticalNesting>
    800028e4:	c511                	beqz	a0,800028f0 <uxTaskBasePriorityGet+0x14>
    800028e6:	7d28                	ld	a0,120(a0)
    800028e8:	e399                	bnez	a5,800028ee <uxTaskBasePriorityGet+0x12>
    800028ea:	30046073          	csrsi	mstatus,8
    800028ee:	8082                	ret
    800028f0:	a181b503          	ld	a0,-1512(gp) # 80027fa0 <pxCurrentTCB>
    800028f4:	bfcd                	j	800028e6 <uxTaskBasePriorityGet+0xa>

00000000800028f6 <uxTaskBasePriorityGetFromISR>:
    800028f6:	c119                	beqz	a0,800028fc <uxTaskBasePriorityGetFromISR+0x6>
    800028f8:	7d28                	ld	a0,120(a0)
    800028fa:	8082                	ret
    800028fc:	a181b503          	ld	a0,-1512(gp) # 80027fa0 <pxCurrentTCB>
    80002900:	7d28                	ld	a0,120(a0)
    80002902:	8082                	ret

0000000080002904 <vTaskPrioritySet>:
    80002904:	4791                	li	a5,4
    80002906:	00b7f663          	bgeu	a5,a1,80002912 <vTaskPrioritySet+0xe>
    8000290a:	30047073          	csrci	mstatus,8
    8000290e:	9002                	ebreak
    80002910:	a001                	j	80002910 <vTaskPrioritySet+0xc>
    80002912:	7179                	addi	sp,sp,-48
    80002914:	f022                	sd	s0,32(sp)
    80002916:	f406                	sd	ra,40(sp)
    80002918:	ec26                	sd	s1,24(sp)
    8000291a:	e84a                	sd	s2,16(sp)
    8000291c:	e44e                	sd	s3,8(sp)
    8000291e:	e052                	sd	s4,0(sp)
    80002920:	842a                	mv	s0,a0
    80002922:	30047073          	csrci	mstatus,8
    80002926:	81018493          	addi	s1,gp,-2032 # 80027d98 <xCriticalNesting>
    8000292a:	609c                	ld	a5,0(s1)
    8000292c:	00178713          	addi	a4,a5,1
    80002930:	e098                	sd	a4,0(s1)
    80002932:	c551                	beqz	a0,800029be <vTaskPrioritySet+0xba>
    80002934:	7c38                	ld	a4,120(s0)
    80002936:	04e58863          	beq	a1,a4,80002986 <vTaskPrioritySet+0x82>
    8000293a:	06b76263          	bltu	a4,a1,8000299e <vTaskPrioritySet+0x9a>
    8000293e:	a181b903          	ld	s2,-1512(gp) # 80027fa0 <pxCurrentTCB>
    80002942:	40890933          	sub	s2,s2,s0
    80002946:	00193913          	seqz	s2,s2
    8000294a:	6c34                	ld	a3,88(s0)
    8000294c:	06d70763          	beq	a4,a3,800029ba <vTaskPrioritySet+0xb6>
    80002950:	06b6e563          	bltu	a3,a1,800029ba <vTaskPrioritySet+0xb6>
    80002954:	781c                	ld	a5,48(s0)
    80002956:	fc2c                	sd	a1,120(s0)
    80002958:	01f7d79b          	srliw	a5,a5,0x1f
    8000295c:	e789                	bnez	a5,80002966 <vTaskPrioritySet+0x62>
    8000295e:	4795                	li	a5,5
    80002960:	40b785b3          	sub	a1,a5,a1
    80002964:	f80c                	sd	a1,48(s0)
    80002966:	00269793          	slli	a5,a3,0x2
    8000296a:	97b6                	add	a5,a5,a3
    8000296c:	7418                	ld	a4,40(s0)
    8000296e:	f1818993          	addi	s3,gp,-232 # 800284a0 <pxReadyTasksLists>
    80002972:	078e                	slli	a5,a5,0x3
    80002974:	97ce                	add	a5,a5,s3
    80002976:	04f70a63          	beq	a4,a5,800029ca <vTaskPrioritySet+0xc6>
    8000297a:	00090463          	beqz	s2,80002982 <vTaskPrioritySet+0x7e>
    8000297e:	00000073          	ecall
    80002982:	609c                	ld	a5,0(s1)
    80002984:	17fd                	addi	a5,a5,-1
    80002986:	e09c                	sd	a5,0(s1)
    80002988:	e399                	bnez	a5,8000298e <vTaskPrioritySet+0x8a>
    8000298a:	30046073          	csrsi	mstatus,8
    8000298e:	70a2                	ld	ra,40(sp)
    80002990:	7402                	ld	s0,32(sp)
    80002992:	64e2                	ld	s1,24(sp)
    80002994:	6942                	ld	s2,16(sp)
    80002996:	69a2                	ld	s3,8(sp)
    80002998:	6a02                	ld	s4,0(sp)
    8000299a:	6145                	addi	sp,sp,48
    8000299c:	8082                	ret
    8000299e:	a1818793          	addi	a5,gp,-1512 # 80027fa0 <pxCurrentTCB>
    800029a2:	6394                	ld	a3,0(a5)
    800029a4:	4901                	li	s2,0
    800029a6:	fa8682e3          	beq	a3,s0,8000294a <vTaskPrioritySet+0x46>
    800029aa:	639c                	ld	a5,0(a5)
    800029ac:	6c34                	ld	a3,88(s0)
    800029ae:	0587b903          	ld	s2,88(a5)
    800029b2:	00b93933          	sltu	s2,s2,a1
    800029b6:	f8d71de3          	bne	a4,a3,80002950 <vTaskPrioritySet+0x4c>
    800029ba:	ec2c                	sd	a1,88(s0)
    800029bc:	bf61                	j	80002954 <vTaskPrioritySet+0x50>
    800029be:	a181b403          	ld	s0,-1512(gp) # 80027fa0 <pxCurrentTCB>
    800029c2:	7c38                	ld	a4,120(s0)
    800029c4:	f6e59be3          	bne	a1,a4,8000293a <vTaskPrioritySet+0x36>
    800029c8:	bf7d                	j	80002986 <vTaskPrioritySet+0x82>
    800029ca:	00840a13          	addi	s4,s0,8
    800029ce:	8552                	mv	a0,s4
    800029d0:	d65fd0ef          	jal	ra,80000734 <uxListRemove>
    800029d4:	9e818793          	addi	a5,gp,-1560 # 80027f70 <uxTopReadyPriority>
    800029d8:	6c38                	ld	a4,88(s0)
    800029da:	6394                	ld	a3,0(a5)
    800029dc:	00e6f363          	bgeu	a3,a4,800029e2 <vTaskPrioritySet+0xde>
    800029e0:	e398                	sd	a4,0(a5)
    800029e2:	00271793          	slli	a5,a4,0x2
    800029e6:	97ba                	add	a5,a5,a4
    800029e8:	078e                	slli	a5,a5,0x3
    800029ea:	ef018713          	addi	a4,gp,-272 # 80028478 <xSuspendedTaskList>
    800029ee:	97ba                	add	a5,a5,a4
    800029f0:	7b9c                	ld	a5,48(a5)
    800029f2:	e81c                	sd	a5,16(s0)
    800029f4:	6b94                	ld	a3,16(a5)
    800029f6:	ec14                	sd	a3,24(s0)
    800029f8:	0146b423          	sd	s4,8(a3)
    800029fc:	0147b823          	sd	s4,16(a5)
    80002a00:	6c34                	ld	a3,88(s0)
    80002a02:	00269793          	slli	a5,a3,0x2
    80002a06:	97b6                	add	a5,a5,a3
    80002a08:	078e                	slli	a5,a5,0x3
    80002a0a:	99be                	add	s3,s3,a5
    80002a0c:	03343423          	sd	s3,40(s0)
    80002a10:	97ba                	add	a5,a5,a4
    80002a12:	7798                	ld	a4,40(a5)
    80002a14:	0705                	addi	a4,a4,1
    80002a16:	f798                	sd	a4,40(a5)
    80002a18:	b78d                	j	8000297a <vTaskPrioritySet+0x76>

0000000080002a1a <vTaskSuspend>:
    80002a1a:	7179                	addi	sp,sp,-48
    80002a1c:	f406                	sd	ra,40(sp)
    80002a1e:	f022                	sd	s0,32(sp)
    80002a20:	ec26                	sd	s1,24(sp)
    80002a22:	e84a                	sd	s2,16(sp)
    80002a24:	e44e                	sd	s3,8(sp)
    80002a26:	30047073          	csrci	mstatus,8
    80002a2a:	81018493          	addi	s1,gp,-2032 # 80027d98 <xCriticalNesting>
    80002a2e:	609c                	ld	a5,0(s1)
    80002a30:	a1818993          	addi	s3,gp,-1512 # 80027fa0 <pxCurrentTCB>
    80002a34:	842a                	mv	s0,a0
    80002a36:	0785                	addi	a5,a5,1
    80002a38:	e09c                	sd	a5,0(s1)
    80002a3a:	c145                	beqz	a0,80002ada <vTaskSuspend+0xc0>
    80002a3c:	00840913          	addi	s2,s0,8
    80002a40:	854a                	mv	a0,s2
    80002a42:	cf3fd0ef          	jal	ra,80000734 <uxListRemove>
    80002a46:	683c                	ld	a5,80(s0)
    80002a48:	c789                	beqz	a5,80002a52 <vTaskSuspend+0x38>
    80002a4a:	03040513          	addi	a0,s0,48
    80002a4e:	ce7fd0ef          	jal	ra,80000734 <uxListRemove>
    80002a52:	85ca                	mv	a1,s2
    80002a54:	ef018513          	addi	a0,gp,-272 # 80028478 <xSuspendedTaskList>
    80002a58:	c99fd0ef          	jal	ra,800006f0 <vListInsertEnd>
    80002a5c:	08c44783          	lbu	a5,140(s0)
    80002a60:	4705                	li	a4,1
    80002a62:	0ff7f793          	zext.b	a5,a5
    80002a66:	00e79463          	bne	a5,a4,80002a6e <vTaskSuspend+0x54>
    80002a6a:	08040623          	sb	zero,140(s0)
    80002a6e:	609c                	ld	a5,0(s1)
    80002a70:	17fd                	addi	a5,a5,-1
    80002a72:	e09c                	sd	a5,0(s1)
    80002a74:	e399                	bnez	a5,80002a7a <vTaskSuspend+0x60>
    80002a76:	30046073          	csrsi	mstatus,8
    80002a7a:	9e018793          	addi	a5,gp,-1568 # 80027f68 <xSchedulerRunning>
    80002a7e:	6398                	ld	a4,0(a5)
    80002a80:	ef01                	bnez	a4,80002a98 <vTaskSuspend+0x7e>
    80002a82:	0009b703          	ld	a4,0(s3)
    80002a86:	04870163          	beq	a4,s0,80002ac8 <vTaskSuspend+0xae>
    80002a8a:	70a2                	ld	ra,40(sp)
    80002a8c:	7402                	ld	s0,32(sp)
    80002a8e:	64e2                	ld	s1,24(sp)
    80002a90:	6942                	ld	s2,16(sp)
    80002a92:	69a2                	ld	s3,8(sp)
    80002a94:	6145                	addi	sp,sp,48
    80002a96:	8082                	ret
    80002a98:	30047073          	csrci	mstatus,8
    80002a9c:	6098                	ld	a4,0(s1)
    80002a9e:	a1018693          	addi	a3,gp,-1520 # 80027f98 <pxDelayedTaskList>
    80002aa2:	6290                	ld	a2,0(a3)
    80002aa4:	00170593          	addi	a1,a4,1
    80002aa8:	e08c                	sd	a1,0(s1)
    80002aaa:	6210                	ld	a2,0(a2)
    80002aac:	ca15                	beqz	a2,80002ae0 <vTaskSuspend+0xc6>
    80002aae:	6294                	ld	a3,0(a3)
    80002ab0:	6e94                	ld	a3,24(a3)
    80002ab2:	6294                	ld	a3,0(a3)
    80002ab4:	9ad1bc23          	sd	a3,-1608(gp) # 80027f40 <xNextTaskUnblockTime>
    80002ab8:	e098                	sd	a4,0(s1)
    80002aba:	f761                	bnez	a4,80002a82 <vTaskSuspend+0x68>
    80002abc:	30046073          	csrsi	mstatus,8
    80002ac0:	0009b703          	ld	a4,0(s3)
    80002ac4:	fc8713e3          	bne	a4,s0,80002a8a <vTaskSuspend+0x70>
    80002ac8:	639c                	ld	a5,0(a5)
    80002aca:	cf99                	beqz	a5,80002ae8 <vTaskSuspend+0xce>
    80002acc:	9a81b783          	ld	a5,-1624(gp) # 80027f30 <uxSchedulerSuspended>
    80002ad0:	c78d                	beqz	a5,80002afa <vTaskSuspend+0xe0>
    80002ad2:	30047073          	csrci	mstatus,8
    80002ad6:	9002                	ebreak
    80002ad8:	a001                	j	80002ad8 <vTaskSuspend+0xbe>
    80002ada:	0009b403          	ld	s0,0(s3)
    80002ade:	bfb9                	j	80002a3c <vTaskSuspend+0x22>
    80002ae0:	56fd                	li	a3,-1
    80002ae2:	9ad1bc23          	sd	a3,-1608(gp) # 80027f40 <xNextTaskUnblockTime>
    80002ae6:	bfc9                	j	80002ab8 <vTaskSuspend+0x9e>
    80002ae8:	ef01b703          	ld	a4,-272(gp) # 80028478 <xSuspendedTaskList>
    80002aec:	9f81b783          	ld	a5,-1544(gp) # 80027f80 <uxCurrentNumberOfTasks>
    80002af0:	00f71863          	bne	a4,a5,80002b00 <vTaskSuspend+0xe6>
    80002af4:	a001bc23          	sd	zero,-1512(gp) # 80027fa0 <pxCurrentTCB>
    80002af8:	bf49                	j	80002a8a <vTaskSuspend+0x70>
    80002afa:	00000073          	ecall
    80002afe:	b771                	j	80002a8a <vTaskSuspend+0x70>
    80002b00:	9a81b783          	ld	a5,-1624(gp) # 80027f30 <uxSchedulerSuspended>
    80002b04:	c789                	beqz	a5,80002b0e <vTaskSuspend+0xf4>
    80002b06:	4785                	li	a5,1
    80002b08:	9cf1b823          	sd	a5,-1584(gp) # 80027f58 <xYieldPendings>
    80002b0c:	bfbd                	j	80002a8a <vTaskSuspend+0x70>
    80002b0e:	7402                	ld	s0,32(sp)
    80002b10:	70a2                	ld	ra,40(sp)
    80002b12:	64e2                	ld	s1,24(sp)
    80002b14:	6942                	ld	s2,16(sp)
    80002b16:	69a2                	ld	s3,8(sp)
    80002b18:	6145                	addi	sp,sp,48
    80002b1a:	d0aff06f          	j	80002024 <vTaskSwitchContext.part.0>

0000000080002b1e <vTaskResume>:
    80002b1e:	c931                	beqz	a0,80002b72 <vTaskResume+0x54>
    80002b20:	7179                	addi	sp,sp,-48
    80002b22:	ec26                	sd	s1,24(sp)
    80002b24:	a1818493          	addi	s1,gp,-1512 # 80027fa0 <pxCurrentTCB>
    80002b28:	609c                	ld	a5,0(s1)
    80002b2a:	f022                	sd	s0,32(sp)
    80002b2c:	f406                	sd	ra,40(sp)
    80002b2e:	e84a                	sd	s2,16(sp)
    80002b30:	e44e                	sd	s3,8(sp)
    80002b32:	e052                	sd	s4,0(sp)
    80002b34:	842a                	mv	s0,a0
    80002b36:	02a78663          	beq	a5,a0,80002b62 <vTaskResume+0x44>
    80002b3a:	30047073          	csrci	mstatus,8
    80002b3e:	81018913          	addi	s2,gp,-2032 # 80027d98 <xCriticalNesting>
    80002b42:	00093783          	ld	a5,0(s2)
    80002b46:	7518                	ld	a4,40(a0)
    80002b48:	ef018993          	addi	s3,gp,-272 # 80028478 <xSuspendedTaskList>
    80002b4c:	00178693          	addi	a3,a5,1
    80002b50:	00d93023          	sd	a3,0(s2)
    80002b54:	03370363          	beq	a4,s3,80002b7a <vTaskResume+0x5c>
    80002b58:	00f93023          	sd	a5,0(s2)
    80002b5c:	e399                	bnez	a5,80002b62 <vTaskResume+0x44>
    80002b5e:	30046073          	csrsi	mstatus,8
    80002b62:	70a2                	ld	ra,40(sp)
    80002b64:	7402                	ld	s0,32(sp)
    80002b66:	64e2                	ld	s1,24(sp)
    80002b68:	6942                	ld	s2,16(sp)
    80002b6a:	69a2                	ld	s3,8(sp)
    80002b6c:	6a02                	ld	s4,0(sp)
    80002b6e:	6145                	addi	sp,sp,48
    80002b70:	8082                	ret
    80002b72:	30047073          	csrci	mstatus,8
    80002b76:	9002                	ebreak
    80002b78:	a001                	j	80002b78 <vTaskResume+0x5a>
    80002b7a:	6938                	ld	a4,80(a0)
    80002b7c:	00818693          	addi	a3,gp,8 # 80028590 <xPendingReadyList>
    80002b80:	fcd70ce3          	beq	a4,a3,80002b58 <vTaskResume+0x3a>
    80002b84:	fb71                	bnez	a4,80002b58 <vTaskResume+0x3a>
    80002b86:	08c54703          	lbu	a4,140(a0)
    80002b8a:	4685                	li	a3,1
    80002b8c:	0ff77713          	zext.b	a4,a4
    80002b90:	fcd704e3          	beq	a4,a3,80002b58 <vTaskResume+0x3a>
    80002b94:	00850a13          	addi	s4,a0,8
    80002b98:	8552                	mv	a0,s4
    80002b9a:	b9bfd0ef          	jal	ra,80000734 <uxListRemove>
    80002b9e:	9e818793          	addi	a5,gp,-1560 # 80027f70 <uxTopReadyPriority>
    80002ba2:	6c38                	ld	a4,88(s0)
    80002ba4:	6394                	ld	a3,0(a5)
    80002ba6:	00e6f363          	bgeu	a3,a4,80002bac <vTaskResume+0x8e>
    80002baa:	e398                	sd	a4,0(a5)
    80002bac:	00271793          	slli	a5,a4,0x2
    80002bb0:	97ba                	add	a5,a5,a4
    80002bb2:	078e                	slli	a5,a5,0x3
    80002bb4:	97ce                	add	a5,a5,s3
    80002bb6:	7b9c                	ld	a5,48(a5)
    80002bb8:	e81c                	sd	a5,16(s0)
    80002bba:	6b98                	ld	a4,16(a5)
    80002bbc:	ec18                	sd	a4,24(s0)
    80002bbe:	01473423          	sd	s4,8(a4)
    80002bc2:	0147b823          	sd	s4,16(a5)
    80002bc6:	6c38                	ld	a4,88(s0)
    80002bc8:	00271793          	slli	a5,a4,0x2
    80002bcc:	97ba                	add	a5,a5,a4
    80002bce:	078e                	slli	a5,a5,0x3
    80002bd0:	f1818713          	addi	a4,gp,-232 # 800284a0 <pxReadyTasksLists>
    80002bd4:	973e                	add	a4,a4,a5
    80002bd6:	f418                	sd	a4,40(s0)
    80002bd8:	99be                	add	s3,s3,a5
    80002bda:	0289b783          	ld	a5,40(s3)
    80002bde:	0785                	addi	a5,a5,1
    80002be0:	02f9b423          	sd	a5,40(s3)
    80002be4:	6098                	ld	a4,0(s1)
    80002be6:	6c3c                	ld	a5,88(s0)
    80002be8:	6f38                	ld	a4,88(a4)
    80002bea:	00f77463          	bgeu	a4,a5,80002bf2 <vTaskResume+0xd4>
    80002bee:	00000073          	ecall
    80002bf2:	00093783          	ld	a5,0(s2)
    80002bf6:	17fd                	addi	a5,a5,-1
    80002bf8:	b785                	j	80002b58 <vTaskResume+0x3a>

0000000080002bfa <xTaskResumeFromISR>:
    80002bfa:	c515                	beqz	a0,80002c26 <xTaskResumeFromISR+0x2c>
    80002bfc:	7179                	addi	sp,sp,-48
    80002bfe:	f022                	sd	s0,32(sp)
    80002c00:	ec26                	sd	s1,24(sp)
    80002c02:	e84a                	sd	s2,16(sp)
    80002c04:	f406                	sd	ra,40(sp)
    80002c06:	e44e                	sd	s3,8(sp)
    80002c08:	751c                	ld	a5,40(a0)
    80002c0a:	ef018493          	addi	s1,gp,-272 # 80028478 <xSuspendedTaskList>
    80002c0e:	842a                	mv	s0,a0
    80002c10:	4901                	li	s2,0
    80002c12:	00978e63          	beq	a5,s1,80002c2e <xTaskResumeFromISR+0x34>
    80002c16:	70a2                	ld	ra,40(sp)
    80002c18:	7402                	ld	s0,32(sp)
    80002c1a:	64e2                	ld	s1,24(sp)
    80002c1c:	69a2                	ld	s3,8(sp)
    80002c1e:	854a                	mv	a0,s2
    80002c20:	6942                	ld	s2,16(sp)
    80002c22:	6145                	addi	sp,sp,48
    80002c24:	8082                	ret
    80002c26:	30047073          	csrci	mstatus,8
    80002c2a:	9002                	ebreak
    80002c2c:	a001                	j	80002c2c <xTaskResumeFromISR+0x32>
    80002c2e:	693c                	ld	a5,80(a0)
    80002c30:	00818513          	addi	a0,gp,8 # 80028590 <xPendingReadyList>
    80002c34:	fea781e3          	beq	a5,a0,80002c16 <xTaskResumeFromISR+0x1c>
    80002c38:	fff9                	bnez	a5,80002c16 <xTaskResumeFromISR+0x1c>
    80002c3a:	08c44783          	lbu	a5,140(s0)
    80002c3e:	4685                	li	a3,1
    80002c40:	0ff7f793          	zext.b	a5,a5
    80002c44:	fcd789e3          	beq	a5,a3,80002c16 <xTaskResumeFromISR+0x1c>
    80002c48:	9a81b783          	ld	a5,-1624(gp) # 80027f30 <uxSchedulerSuspended>
    80002c4c:	eba5                	bnez	a5,80002cbc <xTaskResumeFromISR+0xc2>
    80002c4e:	a181b783          	ld	a5,-1512(gp) # 80027fa0 <pxCurrentTCB>
    80002c52:	6c38                	ld	a4,88(s0)
    80002c54:	6fbc                	ld	a5,88(a5)
    80002c56:	00e7f563          	bgeu	a5,a4,80002c60 <xTaskResumeFromISR+0x66>
    80002c5a:	9cd1b823          	sd	a3,-1584(gp) # 80027f58 <xYieldPendings>
    80002c5e:	4905                	li	s2,1
    80002c60:	00840993          	addi	s3,s0,8
    80002c64:	854e                	mv	a0,s3
    80002c66:	acffd0ef          	jal	ra,80000734 <uxListRemove>
    80002c6a:	9e818793          	addi	a5,gp,-1560 # 80027f70 <uxTopReadyPriority>
    80002c6e:	6c38                	ld	a4,88(s0)
    80002c70:	6394                	ld	a3,0(a5)
    80002c72:	00e6f363          	bgeu	a3,a4,80002c78 <xTaskResumeFromISR+0x7e>
    80002c76:	e398                	sd	a4,0(a5)
    80002c78:	00271793          	slli	a5,a4,0x2
    80002c7c:	97ba                	add	a5,a5,a4
    80002c7e:	078e                	slli	a5,a5,0x3
    80002c80:	97a6                	add	a5,a5,s1
    80002c82:	7b9c                	ld	a5,48(a5)
    80002c84:	854a                	mv	a0,s2
    80002c86:	e81c                	sd	a5,16(s0)
    80002c88:	6b98                	ld	a4,16(a5)
    80002c8a:	ec18                	sd	a4,24(s0)
    80002c8c:	01373423          	sd	s3,8(a4)
    80002c90:	0137b823          	sd	s3,16(a5)
    80002c94:	6c38                	ld	a4,88(s0)
    80002c96:	00271793          	slli	a5,a4,0x2
    80002c9a:	97ba                	add	a5,a5,a4
    80002c9c:	078e                	slli	a5,a5,0x3
    80002c9e:	f1818713          	addi	a4,gp,-232 # 800284a0 <pxReadyTasksLists>
    80002ca2:	973e                	add	a4,a4,a5
    80002ca4:	f418                	sd	a4,40(s0)
    80002ca6:	94be                	add	s1,s1,a5
    80002ca8:	749c                	ld	a5,40(s1)
    80002caa:	0785                	addi	a5,a5,1
    80002cac:	f49c                	sd	a5,40(s1)
    80002cae:	70a2                	ld	ra,40(sp)
    80002cb0:	7402                	ld	s0,32(sp)
    80002cb2:	64e2                	ld	s1,24(sp)
    80002cb4:	6942                	ld	s2,16(sp)
    80002cb6:	69a2                	ld	s3,8(sp)
    80002cb8:	6145                	addi	sp,sp,48
    80002cba:	8082                	ret
    80002cbc:	03040593          	addi	a1,s0,48
    80002cc0:	a31fd0ef          	jal	ra,800006f0 <vListInsertEnd>
    80002cc4:	bf89                	j	80002c16 <xTaskResumeFromISR+0x1c>

0000000080002cc6 <vTaskStartScheduler>:
    80002cc6:	1101                	addi	sp,sp,-32
    80002cc8:	04900793          	li	a5,73
    80002ccc:	00f10023          	sb	a5,0(sp)
    80002cd0:	ec06                	sd	ra,24(sp)
    80002cd2:	e822                	sd	s0,16(sp)
    80002cd4:	00021717          	auipc	a4,0x21
    80002cd8:	f9d70713          	addi	a4,a4,-99 # 80023c71 <_etext+0x1>
    80002cdc:	00110793          	addi	a5,sp,1
    80002ce0:	00074683          	lbu	a3,0(a4)
    80002ce4:	0785                	addi	a5,a5,1
    80002ce6:	0705                	addi	a4,a4,1
    80002ce8:	fed78fa3          	sb	a3,-1(a5)
    80002cec:	faf5                	bnez	a3,80002ce0 <vTaskStartScheduler+0x1a>
    80002cee:	9b018793          	addi	a5,gp,-1616 # 80027f38 <xIdleTaskHandles>
    80002cf2:	4701                	li	a4,0
    80002cf4:	4681                	li	a3,0
    80002cf6:	40000613          	li	a2,1024
    80002cfa:	858a                	mv	a1,sp
    80002cfc:	fffff517          	auipc	a0,0xfffff
    80002d00:	3c850513          	addi	a0,a0,968 # 800020c4 <prvIdleTask>
    80002d04:	f56ff0ef          	jal	ra,8000245a <xTaskCreate>
    80002d08:	c519                	beqz	a0,80002d16 <vTaskStartScheduler+0x50>
    80002d0a:	4405                	li	s0,1
    80002d0c:	02850163          	beq	a0,s0,80002d2e <vTaskStartScheduler+0x68>
    80002d10:	57fd                	li	a5,-1
    80002d12:	00f50a63          	beq	a0,a5,80002d26 <vTaskStartScheduler+0x60>
    80002d16:	60e2                	ld	ra,24(sp)
    80002d18:	6442                	ld	s0,16(sp)
    80002d1a:	00025797          	auipc	a5,0x25
    80002d1e:	06e7b783          	ld	a5,110(a5) # 80027d88 <uxTopUsedPriority>
    80002d22:	6105                	addi	sp,sp,32
    80002d24:	8082                	ret
    80002d26:	30047073          	csrci	mstatus,8
    80002d2a:	9002                	ebreak
    80002d2c:	a001                	j	80002d2c <vTaskStartScheduler+0x66>
    80002d2e:	1c2010ef          	jal	ra,80003ef0 <xTimerCreateTimerTask>
    80002d32:	fc851fe3          	bne	a0,s0,80002d10 <vTaskStartScheduler+0x4a>
    80002d36:	30047073          	csrci	mstatus,8
    80002d3a:	57fd                	li	a5,-1
    80002d3c:	9af1bc23          	sd	a5,-1608(gp) # 80027f40 <xNextTaskUnblockTime>
    80002d40:	9ea1b023          	sd	a0,-1568(gp) # 80027f68 <xSchedulerRunning>
    80002d44:	9e01b823          	sd	zero,-1552(gp) # 80027f78 <xTickCount>
    80002d48:	023010ef          	jal	ra,8000456a <xPortStartScheduler>
    80002d4c:	60e2                	ld	ra,24(sp)
    80002d4e:	6442                	ld	s0,16(sp)
    80002d50:	00025797          	auipc	a5,0x25
    80002d54:	0387b783          	ld	a5,56(a5) # 80027d88 <uxTopUsedPriority>
    80002d58:	6105                	addi	sp,sp,32
    80002d5a:	8082                	ret

0000000080002d5c <vTaskEndScheduler>:
    80002d5c:	30047073          	csrci	mstatus,8
    80002d60:	9e01b023          	sd	zero,-1568(gp) # 80027f68 <xSchedulerRunning>
    80002d64:	0370106f          	j	8000459a <vPortEndScheduler>

0000000080002d68 <vTaskSuspendAll>:
    80002d68:	9a818713          	addi	a4,gp,-1624 # 80027f30 <uxSchedulerSuspended>
    80002d6c:	631c                	ld	a5,0(a4)
    80002d6e:	0785                	addi	a5,a5,1
    80002d70:	e31c                	sd	a5,0(a4)
    80002d72:	8082                	ret

0000000080002d74 <xTaskResumeAll>:
    80002d74:	30047073          	csrci	mstatus,8
    80002d78:	81018713          	addi	a4,gp,-2032 # 80027d98 <xCriticalNesting>
    80002d7c:	631c                	ld	a5,0(a4)
    80002d7e:	9a81b683          	ld	a3,-1624(gp) # 80027f30 <uxSchedulerSuspended>
    80002d82:	0785                	addi	a5,a5,1
    80002d84:	e31c                	sd	a5,0(a4)
    80002d86:	e689                	bnez	a3,80002d90 <xTaskResumeAll+0x1c>
    80002d88:	30047073          	csrci	mstatus,8
    80002d8c:	9002                	ebreak
    80002d8e:	a001                	j	80002d8e <xTaskResumeAll+0x1a>
    80002d90:	d4aff06f          	j	800022da <xTaskResumeAll.part.0>

0000000080002d94 <xTaskGetTickCount>:
    80002d94:	9f01b503          	ld	a0,-1552(gp) # 80027f78 <xTickCount>
    80002d98:	8082                	ret

0000000080002d9a <xTaskGetTickCountFromISR>:
    80002d9a:	9f01b503          	ld	a0,-1552(gp) # 80027f78 <xTickCount>
    80002d9e:	8082                	ret

0000000080002da0 <uxTaskGetNumberOfTasks>:
    80002da0:	9f81b503          	ld	a0,-1544(gp) # 80027f80 <uxCurrentNumberOfTasks>
    80002da4:	8082                	ret

0000000080002da6 <pcTaskGetName>:
    80002da6:	c501                	beqz	a0,80002dae <pcTaskGetName+0x8>
    80002da8:	06850513          	addi	a0,a0,104
    80002dac:	8082                	ret
    80002dae:	a181b503          	ld	a0,-1512(gp) # 80027fa0 <pxCurrentTCB>
    80002db2:	f97d                	bnez	a0,80002da8 <pcTaskGetName+0x2>
    80002db4:	30047073          	csrci	mstatus,8
    80002db8:	9002                	ebreak
    80002dba:	a001                	j	80002dba <pcTaskGetName+0x14>

0000000080002dbc <xTaskGetHandle>:
    80002dbc:	7179                	addi	sp,sp,-48
    80002dbe:	e84a                	sd	s2,16(sp)
    80002dc0:	f406                	sd	ra,40(sp)
    80002dc2:	f022                	sd	s0,32(sp)
    80002dc4:	ec26                	sd	s1,24(sp)
    80002dc6:	e44e                	sd	s3,8(sp)
    80002dc8:	e052                	sd	s4,0(sp)
    80002dca:	892a                	mv	s2,a0
    80002dcc:	1a5140ef          	jal	ra,80017770 <strlen>
    80002dd0:	47bd                	li	a5,15
    80002dd2:	00a7f663          	bgeu	a5,a0,80002dde <xTaskGetHandle+0x22>
    80002dd6:	30047073          	csrci	mstatus,8
    80002dda:	9002                	ebreak
    80002ddc:	a001                	j	80002ddc <xTaskGetHandle+0x20>
    80002dde:	9a818a13          	addi	s4,gp,-1624 # 80027f30 <uxSchedulerSuspended>
    80002de2:	000a3783          	ld	a5,0(s4)
    80002de6:	0785                	addi	a5,a5,1
    80002de8:	00fa3023          	sd	a5,0(s4)
    80002dec:	fb818493          	addi	s1,gp,-72 # 80028540 <pxReadyTasksLists+0xa0>
    80002df0:	8526                	mv	a0,s1
    80002df2:	85ca                	mv	a1,s2
    80002df4:	910ff0ef          	jal	ra,80001f04 <prvSearchForNameWithinSingleList>
    80002df8:	f1818993          	addi	s3,gp,-232 # 800284a0 <pxReadyTasksLists>
    80002dfc:	842a                	mv	s0,a0
    80002dfe:	ed01                	bnez	a0,80002e16 <xTaskGetHandle+0x5a>
    80002e00:	fd848793          	addi	a5,s1,-40
    80002e04:	04998263          	beq	s3,s1,80002e48 <xTaskGetHandle+0x8c>
    80002e08:	84be                	mv	s1,a5
    80002e0a:	8526                	mv	a0,s1
    80002e0c:	85ca                	mv	a1,s2
    80002e0e:	8f6ff0ef          	jal	ra,80001f04 <prvSearchForNameWithinSingleList>
    80002e12:	842a                	mv	s0,a0
    80002e14:	d575                	beqz	a0,80002e00 <xTaskGetHandle+0x44>
    80002e16:	30047073          	csrci	mstatus,8
    80002e1a:	81018713          	addi	a4,gp,-2032 # 80027d98 <xCriticalNesting>
    80002e1e:	631c                	ld	a5,0(a4)
    80002e20:	000a3683          	ld	a3,0(s4)
    80002e24:	0785                	addi	a5,a5,1
    80002e26:	e31c                	sd	a5,0(a4)
    80002e28:	e689                	bnez	a3,80002e32 <xTaskGetHandle+0x76>
    80002e2a:	30047073          	csrci	mstatus,8
    80002e2e:	9002                	ebreak
    80002e30:	a001                	j	80002e30 <xTaskGetHandle+0x74>
    80002e32:	ca8ff0ef          	jal	ra,800022da <xTaskResumeAll.part.0>
    80002e36:	70a2                	ld	ra,40(sp)
    80002e38:	8522                	mv	a0,s0
    80002e3a:	7402                	ld	s0,32(sp)
    80002e3c:	64e2                	ld	s1,24(sp)
    80002e3e:	6942                	ld	s2,16(sp)
    80002e40:	69a2                	ld	s3,8(sp)
    80002e42:	6a02                	ld	s4,0(sp)
    80002e44:	6145                	addi	sp,sp,48
    80002e46:	8082                	ret
    80002e48:	85ca                	mv	a1,s2
    80002e4a:	a101b503          	ld	a0,-1520(gp) # 80027f98 <pxDelayedTaskList>
    80002e4e:	8b6ff0ef          	jal	ra,80001f04 <prvSearchForNameWithinSingleList>
    80002e52:	842a                	mv	s0,a0
    80002e54:	f169                	bnez	a0,80002e16 <xTaskGetHandle+0x5a>
    80002e56:	85ca                	mv	a1,s2
    80002e58:	a081b503          	ld	a0,-1528(gp) # 80027f90 <pxOverflowDelayedTaskList>
    80002e5c:	8a8ff0ef          	jal	ra,80001f04 <prvSearchForNameWithinSingleList>
    80002e60:	842a                	mv	s0,a0
    80002e62:	f955                	bnez	a0,80002e16 <xTaskGetHandle+0x5a>
    80002e64:	85ca                	mv	a1,s2
    80002e66:	ef018513          	addi	a0,gp,-272 # 80028478 <xSuspendedTaskList>
    80002e6a:	89aff0ef          	jal	ra,80001f04 <prvSearchForNameWithinSingleList>
    80002e6e:	842a                	mv	s0,a0
    80002e70:	f15d                	bnez	a0,80002e16 <xTaskGetHandle+0x5a>
    80002e72:	85ca                	mv	a1,s2
    80002e74:	fe018513          	addi	a0,gp,-32 # 80028568 <xTasksWaitingTermination>
    80002e78:	88cff0ef          	jal	ra,80001f04 <prvSearchForNameWithinSingleList>
    80002e7c:	842a                	mv	s0,a0
    80002e7e:	bf61                	j	80002e16 <xTaskGetHandle+0x5a>

0000000080002e80 <xTaskCatchUpTicks>:
    80002e80:	9a818793          	addi	a5,gp,-1624 # 80027f30 <uxSchedulerSuspended>
    80002e84:	6398                	ld	a4,0(a5)
    80002e86:	c709                	beqz	a4,80002e90 <xTaskCatchUpTicks+0x10>
    80002e88:	30047073          	csrci	mstatus,8
    80002e8c:	9002                	ebreak
    80002e8e:	a001                	j	80002e8e <xTaskCatchUpTicks+0xe>
    80002e90:	6398                	ld	a4,0(a5)
    80002e92:	0705                	addi	a4,a4,1
    80002e94:	e398                	sd	a4,0(a5)
    80002e96:	30047073          	csrci	mstatus,8
    80002e9a:	9d818613          	addi	a2,gp,-1576 # 80027f60 <xPendedTicks>
    80002e9e:	6214                	ld	a3,0(a2)
    80002ea0:	81018713          	addi	a4,gp,-2032 # 80027d98 <xCriticalNesting>
    80002ea4:	630c                	ld	a1,0(a4)
    80002ea6:	9536                	add	a0,a0,a3
    80002ea8:	e208                	sd	a0,0(a2)
    80002eaa:	e199                	bnez	a1,80002eb0 <xTaskCatchUpTicks+0x30>
    80002eac:	30046073          	csrsi	mstatus,8
    80002eb0:	30047073          	csrci	mstatus,8
    80002eb4:	6314                	ld	a3,0(a4)
    80002eb6:	6390                	ld	a2,0(a5)
    80002eb8:	00168793          	addi	a5,a3,1
    80002ebc:	e31c                	sd	a5,0(a4)
    80002ebe:	e609                	bnez	a2,80002ec8 <xTaskCatchUpTicks+0x48>
    80002ec0:	30047073          	csrci	mstatus,8
    80002ec4:	9002                	ebreak
    80002ec6:	a001                	j	80002ec6 <xTaskCatchUpTicks+0x46>
    80002ec8:	c12ff06f          	j	800022da <xTaskResumeAll.part.0>

0000000080002ecc <xTaskAbortDelay>:
    80002ecc:	c125                	beqz	a0,80002f2c <xTaskAbortDelay+0x60>
    80002ece:	7179                	addi	sp,sp,-48
    80002ed0:	ec26                	sd	s1,24(sp)
    80002ed2:	9a818493          	addi	s1,gp,-1624 # 80027f30 <uxSchedulerSuspended>
    80002ed6:	609c                	ld	a5,0(s1)
    80002ed8:	f022                	sd	s0,32(sp)
    80002eda:	f406                	sd	ra,40(sp)
    80002edc:	0785                	addi	a5,a5,1
    80002ede:	e84a                	sd	s2,16(sp)
    80002ee0:	e44e                	sd	s3,8(sp)
    80002ee2:	e052                	sd	s4,0(sp)
    80002ee4:	842a                	mv	s0,a0
    80002ee6:	e09c                	sd	a5,0(s1)
    80002ee8:	957ff0ef          	jal	ra,8000283e <eTaskGetState>
    80002eec:	0005079b          	sext.w	a5,a0
    80002ef0:	4709                	li	a4,2
    80002ef2:	4981                	li	s3,0
    80002ef4:	81018913          	addi	s2,gp,-2032 # 80027d98 <xCriticalNesting>
    80002ef8:	02e78e63          	beq	a5,a4,80002f34 <xTaskAbortDelay+0x68>
    80002efc:	30047073          	csrci	mstatus,8
    80002f00:	00093783          	ld	a5,0(s2)
    80002f04:	6098                	ld	a4,0(s1)
    80002f06:	0785                	addi	a5,a5,1
    80002f08:	00f93023          	sd	a5,0(s2)
    80002f0c:	e709                	bnez	a4,80002f16 <xTaskAbortDelay+0x4a>
    80002f0e:	30047073          	csrci	mstatus,8
    80002f12:	9002                	ebreak
    80002f14:	a001                	j	80002f14 <xTaskAbortDelay+0x48>
    80002f16:	bc4ff0ef          	jal	ra,800022da <xTaskResumeAll.part.0>
    80002f1a:	70a2                	ld	ra,40(sp)
    80002f1c:	7402                	ld	s0,32(sp)
    80002f1e:	64e2                	ld	s1,24(sp)
    80002f20:	6942                	ld	s2,16(sp)
    80002f22:	6a02                	ld	s4,0(sp)
    80002f24:	854e                	mv	a0,s3
    80002f26:	69a2                	ld	s3,8(sp)
    80002f28:	6145                	addi	sp,sp,48
    80002f2a:	8082                	ret
    80002f2c:	30047073          	csrci	mstatus,8
    80002f30:	9002                	ebreak
    80002f32:	a001                	j	80002f32 <xTaskAbortDelay+0x66>
    80002f34:	00840a13          	addi	s4,s0,8
    80002f38:	8552                	mv	a0,s4
    80002f3a:	ffafd0ef          	jal	ra,80000734 <uxListRemove>
    80002f3e:	30047073          	csrci	mstatus,8
    80002f42:	00093783          	ld	a5,0(s2)
    80002f46:	6838                	ld	a4,80(s0)
    80002f48:	00178693          	addi	a3,a5,1
    80002f4c:	00d93023          	sd	a3,0(s2)
    80002f50:	cb19                	beqz	a4,80002f66 <xTaskAbortDelay+0x9a>
    80002f52:	03040513          	addi	a0,s0,48
    80002f56:	fdefd0ef          	jal	ra,80000734 <uxListRemove>
    80002f5a:	00093783          	ld	a5,0(s2)
    80002f5e:	4705                	li	a4,1
    80002f60:	08e406a3          	sb	a4,141(s0)
    80002f64:	17fd                	addi	a5,a5,-1
    80002f66:	00f93023          	sd	a5,0(s2)
    80002f6a:	e399                	bnez	a5,80002f70 <xTaskAbortDelay+0xa4>
    80002f6c:	30046073          	csrsi	mstatus,8
    80002f70:	9e818793          	addi	a5,gp,-1560 # 80027f70 <uxTopReadyPriority>
    80002f74:	6c38                	ld	a4,88(s0)
    80002f76:	6394                	ld	a3,0(a5)
    80002f78:	00e6f363          	bgeu	a3,a4,80002f7e <xTaskAbortDelay+0xb2>
    80002f7c:	e398                	sd	a4,0(a5)
    80002f7e:	00271793          	slli	a5,a4,0x2
    80002f82:	97ba                	add	a5,a5,a4
    80002f84:	078e                	slli	a5,a5,0x3
    80002f86:	ef018713          	addi	a4,gp,-272 # 80028478 <xSuspendedTaskList>
    80002f8a:	97ba                	add	a5,a5,a4
    80002f8c:	7b9c                	ld	a5,48(a5)
    80002f8e:	4985                	li	s3,1
    80002f90:	e81c                	sd	a5,16(s0)
    80002f92:	6b94                	ld	a3,16(a5)
    80002f94:	ec14                	sd	a3,24(s0)
    80002f96:	0146b423          	sd	s4,8(a3)
    80002f9a:	0147b823          	sd	s4,16(a5)
    80002f9e:	6c34                	ld	a3,88(s0)
    80002fa0:	00269793          	slli	a5,a3,0x2
    80002fa4:	97b6                	add	a5,a5,a3
